ccopy_reg
_reconstructor
p0
(cFWCore.ParameterSet.Config
Process
p1
c__builtin__
object
p2
Ntp3
Rp4
(dp5
S'CaloGeometryBuilder'
p6
g0
(cFWCore.ParameterSet.Modules
ESProducer
p7
g2
Ntp8
Rp9
(dp10
S'_Parameterizable__parameterNames'
p11
(lp12
S'SelectedCalos'
p13
asS'_isFrozen'
p14
I00
sS'_isModified'
p15
I00
sS'_lineNumber'
p16
I40
sS'_filename'
p17
S'/cvmfs/cms.cern.ch/slc6_amd64_gcc472/cms/cmssw-patch/CMSSW_6_2_0_SLHC26_patch3/python/FWCore/ParameterSet/Modules.py'
p18
sg13
g0
(cFWCore.ParameterSet.Types
vstring
p19
c__builtin__
list
p20
(lp21
S'HCAL'
p22
aS'ZDC'
p23
aS'CASTOR'
p24
aS'EcalBarrel'
p25
aS'TOWER'
p26
atp27
Rp28
(dp29
g14
I00
sS'_ParameterTypeBase__isTracked'
p30
I01
sg15
I00
sS'_nPerLine'
p31
I1
sbsS'_Labelable__label'
p32
g6
sS'_TypedParameterizable__type'
p33
g6
sbsS'_Process__sequences'
p34
(dp35
S'me0MuonReco'
p36
g0
(cFWCore.ParameterSet.SequenceTypes
Sequence
p37
g2
Ntp38
Rp39
(dp40
g14
I00
sS'_seq'
p41
g0
(cFWCore.ParameterSet.SequenceTypes
_SequenceCollection
p42
g2
Ntp43
Rp44
(dp45
S'_collection'
p46
(lp47
g0
(cFWCore.ParameterSet.Modules
EDProducer
p48
g2
Ntp49
Rp50
(dp51
g11
(lp52
S'maxDiffPhiDirection'
p53
aS'maxPullY'
p54
aS'maxDiffX'
p55
aS'maxDiffY'
p56
aS'maxPullX'
p57
asg14
I00
sg15
I00
sg16
I9
sg54
g0
(cFWCore.ParameterSet.Types
double
p58
g2
Ntp59
Rp60
(dp61
g14
I00
sg30
I01
sS'_value'
p62
F20.0
sg15
I00
sbsg53
g0
(g58
g2
Ntp63
Rp64
(dp65
g14
I00
sg30
I01
sg62
F3.14
sg15
I00
sbsg55
g0
(g58
g2
Ntp66
Rp67
(dp68
g14
I00
sg30
I01
sg62
F4.0
sg15
I00
sbsg56
g0
(g58
g2
Ntp69
Rp70
(dp71
g14
I00
sg30
I01
sg62
F20.0
sg15
I00
sbsg57
g0
(g58
g2
Ntp72
Rp73
(dp74
g14
I00
sg30
I01
sg62
F3.0
sg15
I00
sbsg17
S'/afs/cern.ch/work/a/archie/private/TimingStudyforME0/CMSSW_6_2_0_SLHC26_patch3/python/RecoMuon/MuonIdentification/me0SegmentMatcher_cfi.py'
p75
sg32
S'me0SegmentMatching'
p76
sg33
S'ME0SegmentMatcher'
p77
sbag0
(g48
g2
Ntp78
Rp79
(dp80
g11
(lp81
sg14
I00
sg15
I00
sg16
I6
sg17
S'/afs/cern.ch/work/a/archie/private/TimingStudyforME0/CMSSW_6_2_0_SLHC26_patch3/python/RecoMuon/MuonIdentification/me0MuonConverter_cfi.py'
p82
sg32
S'me0MuonConverting'
p83
sg33
S'ME0MuonConverter'
p84
sbasbsg15
I00
sg32
g36
sbssS'_Process__source'
p85
g0
(cFWCore.ParameterSet.Modules
Source
p86
g2
Ntp87
Rp88
(dp89
g11
(lp90
S'fileNames'
p91
aS'skipEvents'
p92
asg14
I00
sg15
I01
sg16
I175
sg17
g18
sg92
g0
(cFWCore.ParameterSet.Types
uint32
p93
g2
Ntp94
Rp95
(dp96
g14
I00
sg30
I00
sg62
I0
sg15
I00
sbsg91
g0
(g19
g20
(lp97
S'root://xrootd.unl.edu//store/user/amkalsi/DYToMuMu_M-20_TuneZ2star_14TeV-pythia6-tauola/DYToMuMu_M-20_TuneZ2star_14TeV-pythia6-tauola_HGCALGS_PU140_MinBias_ME0_RECO_TimingResolution1ps/b0b349462b87ba52be1798b06a8d86fb/out_reco_1005_1_YLW.root'
p98
atp99
Rp100
(dp101
g14
I00
sg30
I00
sg15
I00
sg31
I1
sbsg33
S'PoolSource'
p102
sbsS'RemapDetIdService'
p103
g0
(cFWCore.ParameterSet.Modules
Service
p104
g2
Ntp105
Rp106
(dp107
g11
(lp108
S'mapFilename'
p109
aS'inputCollections'
p110
aS'versionsToRemap'
p111
asg14
I00
sg15
I00
sg16
I10
sg17
g18
sg109
g0
(cFWCore.ParameterSet.Types
FileInPath
p112
g2
Ntp113
Rp114
(dp115
g14
I00
sg30
I01
sg62
S'SimTracker/SiPixelDigitizer/test/trackerDetIdMapSLHC12toSLHC13.txt'
p116
sg15
I00
sbsg110
g0
(cFWCore.ParameterSet.Types
VInputTag
p117
g20
(lp118
g0
(cFWCore.ParameterSet.Types
InputTag
p119
g2
Ntp120
Rp121
(dp122
g14
I00
sg30
I01
sg15
I00
sS'_InputTag__moduleLabel'
p123
S'g4SimHits'
p124
sS'_InputTag__processName'
p125
S''
p126
sS'_InputTag__productInstance'
p127
S'TrackerHitsPixelEndcapHighTof'
p128
sbag0
(g119
g2
Ntp129
Rp130
(dp131
g14
I00
sg30
I01
sg15
I00
sg123
g124
sg125
g126
sg127
S'TrackerHitsPixelEndcapLowTof'
p132
sbatp133
Rp134
(dp135
g14
I00
sg30
I01
sg15
I00
sbsg111
g0
(g19
g20
(lp136
S'CMSSW_6_2_0_SLHC11'
p137
aS'CMSSW_6_2_0_SLHC12'
p138
atp139
Rp140
(dp141
g14
I00
sg30
I01
sg15
I00
sg31
I1
sbsg33
g103
sbsS'CastorHardcodeGeometryEP'
p142
g0
(g7
g2
Ntp143
Rp144
(dp145
g11
(lp146
sg14
I00
sg15
I00
sg16
I40
sg17
g18
sg32
g142
sg33
g142
sbsS'fieldScaling'
p147
g0
(cFWCore.ParameterSet.Types
PSet
p148
g2
Ntp149
Rp150
(dp151
g14
I00
sg30
I01
sS'scalingVolumes'
p152
g0
(cFWCore.ParameterSet.Types
vint32
p153
g20
(lp154
I14100
aI14200
aI17600
aI17800
aI17900
aI18100
aI18300
aI18400
aI18600
aI23100
aI23300
aI23400
aI23600
aI23800
aI23900
aI24100
aI28600
aI28800
aI28900
aI29100
aI29300
aI29400
aI29600
aI28609
aI28809
aI28909
aI29109
aI29309
aI29409
aI29609
aI28610
aI28810
aI28910
aI29110
aI29310
aI29410
aI29610
aI28611
aI28811
aI28911
aI29111
aI29311
aI29411
aI29611
atp155
Rp156
(dp157
g14
I00
sg30
I01
sg15
I00
sbsg15
I00
sS'scalingFactors'
p158
g0
(cFWCore.ParameterSet.Types
vdouble
p159
g20
(lp160
I1
aI1
aF0.994
aF1.004
aF1.004
aF1.005
aF1.004
aF1.004
aF0.994
aF0.965
aF0.958
aF0.958
aF0.953
aF0.958
aF0.958
aF0.965
aF0.918
aF0.924
aF0.924
aF0.906
aF0.924
aF0.924
aF0.918
aF0.991
aF0.998
aF0.998
aF0.978
aF0.998
aF0.998
aF0.991
aF0.991
aF0.998
aF0.998
aF0.978
aF0.998
aF0.998
aF0.991
aF0.991
aF0.998
aF0.998
aF0.978
aF0.998
aF0.998
aF0.991
atp161
Rp162
(dp163
g14
I00
sg30
I01
sg15
I00
sbsg11
(lp164
g152
ag158
asg32
g147
sbsS'source'
p165
g88
sS'RandomNumberGeneratorService'
p166
g0
(g104
g2
Ntp167
Rp168
(dp169
g14
I00
sS'horeco'
p170
g0
(g148
g2
Ntp171
Rp172
(dp173
g14
I00
sg30
I01
sg15
I00
sS'initialSeed'
p174
g0
(g93
g2
Ntp175
Rp176
(dp177
g14
I00
sg30
I00
sg62
I541321
sg15
I00
sbsg11
(lp178
g174
aS'engineName'
p179
asg179
g0
(cFWCore.ParameterSet.Types
string
p180
g2
Ntp181
Rp182
(dp183
g14
I00
sg30
I00
sg62
S'TRandom3'
p184
sg15
I00
sbsbsg16
I10
sS'paramMuons'
p185
g0
(g148
g2
Ntp186
Rp187
(dp188
g14
I00
sg30
I01
sg15
I00
sg174
g0
(g93
g2
Ntp189
Rp190
(dp191
g14
I00
sg30
I00
sg62
I54525
sg15
I00
sbsg11
(lp192
g174
ag179
asg179
g0
(g180
g2
Ntp193
Rp194
(dp195
g14
I00
sg30
I00
sg62
g184
sg15
I00
sbsbsS'saveFileName'
p196
g0
(g180
g2
Ntp197
Rp198
(dp199
g14
I00
sg30
I00
sg62
g126
sg15
I00
sbsS'hbhereco'
p200
g0
(g148
g2
Ntp201
Rp202
(dp203
g14
I00
sg30
I01
sg15
I00
sg174
g0
(g93
g2
Ntp204
Rp205
(dp206
g14
I00
sg30
I00
sg62
I541321
sg15
I00
sbsg11
(lp207
g174
ag179
asg179
g0
(g180
g2
Ntp208
Rp209
(dp210
g14
I00
sg30
I00
sg62
g184
sg15
I00
sbsbsS'simSiStripDigiSimLink'
p211
g0
(g148
g2
Ntp212
Rp213
(dp214
g14
I00
sg30
I01
sg15
I00
sg174
g0
(g93
g2
Ntp215
Rp216
(dp217
g14
I00
sg30
I00
sg62
I1234567
sg15
I00
sbsg11
(lp218
g174
ag179
asg179
g0
(g180
g2
Ntp219
Rp220
(dp221
g14
I00
sg30
I00
sg62
S'HepJamesRandom'
p222
sg15
I00
sbsbsS'externalLHEProducer'
p223
g0
(g148
g2
Ntp224
Rp225
(dp226
g14
I00
sg30
I01
sg15
I00
sg174
g0
(g93
g2
Ntp227
Rp228
(dp229
g14
I00
sg30
I00
sg62
I234567
sg15
I00
sbsg11
(lp230
g174
ag179
asg179
g0
(g180
g2
Ntp231
Rp232
(dp233
g14
I00
sg30
I00
sg62
g222
sg15
I00
sbsbsS'famosPileUp'
p234
g0
(g148
g2
Ntp235
Rp236
(dp237
g14
I00
sg30
I01
sg15
I00
sg174
g0
(g93
g2
Ntp238
Rp239
(dp240
g14
I00
sg30
I00
sg62
I918273
sg15
I00
sbsg11
(lp241
g174
ag179
asg179
g0
(g180
g2
Ntp242
Rp243
(dp244
g14
I00
sg30
I00
sg62
g184
sg15
I00
sbsbsS'simMuonDTDigis'
p245
g0
(g148
g2
Ntp246
Rp247
(dp248
g14
I00
sg30
I01
sg15
I00
sg174
g0
(g93
g2
Ntp249
Rp250
(dp251
g14
I00
sg30
I00
sg62
I1234567
sg15
I00
sbsg11
(lp252
g174
ag179
asg179
g0
(g180
g2
Ntp253
Rp254
(dp255
g14
I00
sg30
I00
sg62
g222
sg15
I00
sbsbsg33
g166
sS'siTrackerGaussianSmearingRecHits'
p256
g0
(g148
g2
Ntp257
Rp258
(dp259
g14
I00
sg30
I01
sg15
I00
sg174
g0
(g93
g2
Ntp260
Rp261
(dp262
g14
I00
sg30
I00
sg62
I24680
sg15
I00
sbsg11
(lp263
g174
ag179
asg179
g0
(g180
g2
Ntp264
Rp265
(dp266
g14
I00
sg30
I00
sg62
g184
sg15
I00
sbsbsg11
(lp267
g170
ag185
ag196
ag200
ag211
ag223
ag234
ag245
ag256
aS'ecalPreshowerRecHit'
p268
aS'generator'
p269
aS'simMuonRPCDigis'
p270
aS'hiSignal'
p271
aS'mixSimCaloHits'
p272
aS'mix'
p273
aS'VtxSmeared'
p274
aS'LHCTransport'
p275
aS'ecalRecHit'
p276
aS'hfreco'
p277
aS'mixRecoTracks'
p278
aS'hiSignalG4SimHits'
p279
aS'famosSimHits'
p280
aS'MuonSimHits'
p281
ag124
aS'hiSignalLHCTransport'
p282
aS'mixGenPU'
p283
aS'l1ParamMuons'
p284
aS'simBeamSpotFilter'
p285
aS'simMuonCSCDigis'
p286
aS'mixData'
p287
asg268
g0
(g148
g2
Ntp288
Rp289
(dp290
g14
I00
sg30
I01
sg15
I00
sg174
g0
(g93
g2
Ntp291
Rp292
(dp293
g14
I00
sg30
I00
sg62
I6541321
sg15
I00
sbsg11
(lp294
g174
ag179
asg179
g0
(g180
g2
Ntp295
Rp296
(dp297
g14
I00
sg30
I00
sg62
g184
sg15
I00
sbsbsg269
g0
(g148
g2
Ntp298
Rp299
(dp300
g14
I00
sg30
I01
sg15
I00
sg174
g0
(g93
g2
Ntp301
Rp302
(dp303
g14
I00
sg30
I00
sg62
I123456789
sg15
I00
sbsg11
(lp304
g174
ag179
asg179
g0
(g180
g2
Ntp305
Rp306
(dp307
g14
I00
sg30
I00
sg62
g222
sg15
I00
sbsbsg270
g0
(g148
g2
Ntp308
Rp309
(dp310
g14
I00
sg30
I01
sg15
I00
sg174
g0
(g93
g2
Ntp311
Rp312
(dp313
g14
I00
sg30
I00
sg62
I1234567
sg15
I00
sbsg11
(lp314
g174
ag179
asg179
g0
(g180
g2
Ntp315
Rp316
(dp317
g14
I00
sg30
I00
sg62
g222
sg15
I00
sbsbsg271
g0
(g148
g2
Ntp318
Rp319
(dp320
g14
I00
sg30
I01
sg15
I00
sg174
g0
(g93
g2
Ntp321
Rp322
(dp323
g14
I00
sg30
I00
sg62
I123456789
sg15
I00
sbsg11
(lp324
g174
ag179
asg179
g0
(g180
g2
Ntp325
Rp326
(dp327
g14
I00
sg30
I00
sg62
g222
sg15
I00
sbsbsg272
g0
(g148
g2
Ntp328
Rp329
(dp330
g14
I00
sg30
I01
sg15
I00
sg174
g0
(g93
g2
Ntp331
Rp332
(dp333
g14
I00
sg30
I00
sg62
I918273
sg15
I00
sbsg11
(lp334
g174
ag179
asg179
g0
(g180
g2
Ntp335
Rp336
(dp337
g14
I00
sg30
I00
sg62
g184
sg15
I00
sbsbsg273
g0
(g148
g2
Ntp338
Rp339
(dp340
g14
I00
sg30
I01
sg15
I00
sg174
g0
(g93
g2
Ntp341
Rp342
(dp343
g14
I00
sg30
I00
sg62
I12345
sg15
I00
sbsg11
(lp344
g174
ag179
asg179
g0
(g180
g2
Ntp345
Rp346
(dp347
g14
I00
sg30
I00
sg62
g222
sg15
I00
sbsbsg274
g0
(g148
g2
Ntp348
Rp349
(dp350
g14
I00
sg30
I01
sg15
I00
sg174
g0
(g93
g2
Ntp351
Rp352
(dp353
g14
I00
sg30
I00
sg62
I98765432
sg15
I00
sbsg11
(lp354
g174
ag179
asg179
g0
(g180
g2
Ntp355
Rp356
(dp357
g14
I00
sg30
I00
sg62
g222
sg15
I00
sbsbsg275
g0
(g148
g2
Ntp358
Rp359
(dp360
g14
I00
sg30
I01
sg15
I00
sg174
g0
(g93
g2
Ntp361
Rp362
(dp363
g14
I00
sg30
I00
sg62
I87654321
sg15
I00
sbsg11
(lp364
g174
ag179
asg179
g0
(g180
g2
Ntp365
Rp366
(dp367
g14
I00
sg30
I00
sg62
g184
sg15
I00
sbsbsg276
g0
(g148
g2
Ntp368
Rp369
(dp370
g14
I00
sg30
I01
sg15
I00
sg174
g0
(g93
g2
Ntp371
Rp372
(dp373
g14
I00
sg30
I00
sg62
I654321
sg15
I00
sbsg11
(lp374
g174
ag179
asg179
g0
(g180
g2
Ntp375
Rp376
(dp377
g14
I00
sg30
I00
sg62
g184
sg15
I00
sbsbsg287
g0
(g148
g2
Ntp378
Rp379
(dp380
g14
I00
sg30
I01
sg15
I00
sg174
g0
(g93
g2
Ntp381
Rp382
(dp383
g14
I00
sg30
I00
sg62
I12345
sg15
I00
sbsg11
(lp384
g174
ag179
asg179
g0
(g180
g2
Ntp385
Rp386
(dp387
g14
I00
sg30
I00
sg62
g222
sg15
I00
sbsbsg278
g0
(g148
g2
Ntp388
Rp389
(dp390
g14
I00
sg30
I01
sg15
I00
sg174
g0
(g93
g2
Ntp391
Rp392
(dp393
g14
I00
sg30
I00
sg62
I918273
sg15
I00
sbsg11
(lp394
g174
ag179
asg179
g0
(g180
g2
Ntp395
Rp396
(dp397
g14
I00
sg30
I00
sg62
g184
sg15
I00
sbsbsg279
g0
(g148
g2
Ntp398
Rp399
(dp400
g14
I00
sg30
I01
sg15
I00
sg174
g0
(g93
g2
Ntp401
Rp402
(dp403
g14
I00
sg30
I00
sg62
I11
sg15
I00
sbsg11
(lp404
g174
ag179
asg179
g0
(g180
g2
Ntp405
Rp406
(dp407
g14
I00
sg30
I00
sg62
g222
sg15
I00
sbsbsg280
g0
(g148
g2
Ntp408
Rp409
(dp410
g14
I00
sg30
I01
sg15
I00
sg174
g0
(g93
g2
Ntp411
Rp412
(dp413
g14
I00
sg30
I00
sg62
I13579
sg15
I00
sbsg11
(lp414
g174
ag179
asg179
g0
(g180
g2
Ntp415
Rp416
(dp417
g14
I00
sg30
I00
sg62
g184
sg15
I00
sbsbsg281
g0
(g148
g2
Ntp418
Rp419
(dp420
g14
I00
sg30
I01
sg15
I00
sg174
g0
(g93
g2
Ntp421
Rp422
(dp423
g14
I00
sg30
I00
sg62
I987346
sg15
I00
sbsg11
(lp424
g174
ag179
asg179
g0
(g180
g2
Ntp425
Rp426
(dp427
g14
I00
sg30
I00
sg62
g184
sg15
I00
sbsbsg124
g0
(g148
g2
Ntp428
Rp429
(dp430
g14
I00
sg30
I01
sg15
I00
sg174
g0
(g93
g2
Ntp431
Rp432
(dp433
g14
I00
sg30
I00
sg62
I11
sg15
I00
sbsg11
(lp434
g174
ag179
asg179
g0
(g180
g2
Ntp435
Rp436
(dp437
g14
I00
sg30
I00
sg62
g222
sg15
I00
sbsbsg282
g0
(g148
g2
Ntp438
Rp439
(dp440
g14
I00
sg30
I01
sg15
I00
sg174
g0
(g93
g2
Ntp441
Rp442
(dp443
g14
I00
sg30
I00
sg62
I88776655
sg15
I00
sbsg11
(lp444
g174
ag179
asg179
g0
(g180
g2
Ntp445
Rp446
(dp447
g14
I00
sg30
I00
sg62
g184
sg15
I00
sbsbsg283
g0
(g148
g2
Ntp448
Rp449
(dp450
g14
I00
sg30
I01
sg15
I00
sg174
g0
(g93
g2
Ntp451
Rp452
(dp453
g14
I00
sg30
I00
sg62
I918273
sg15
I00
sbsg11
(lp454
g174
ag179
asg179
g0
(g180
g2
Ntp455
Rp456
(dp457
g14
I00
sg30
I00
sg62
g184
sg15
I00
sbsbsg284
g0
(g148
g2
Ntp458
Rp459
(dp460
g14
I00
sg30
I01
sg15
I00
sg174
g0
(g93
g2
Ntp461
Rp462
(dp463
g14
I00
sg30
I00
sg62
I6453209
sg15
I00
sbsg11
(lp464
g174
ag179
asg179
g0
(g180
g2
Ntp465
Rp466
(dp467
g14
I00
sg30
I00
sg62
g184
sg15
I00
sbsbsg15
I00
sg285
g0
(g148
g2
Ntp468
Rp469
(dp470
g14
I00
sg30
I01
sg15
I00
sg174
g0
(g93
g2
Ntp471
Rp472
(dp473
g14
I00
sg30
I00
sg62
I87654321
sg15
I00
sbsg11
(lp474
g174
ag179
asg179
g0
(g180
g2
Ntp475
Rp476
(dp477
g14
I00
sg30
I00
sg62
g222
sg15
I00
sbsbsg286
g0
(g148
g2
Ntp478
Rp479
(dp480
g14
I00
sg30
I01
sg15
I00
sg174
g0
(g93
g2
Ntp481
Rp482
(dp483
g14
I00
sg30
I00
sg62
I11223344
sg15
I00
sbsg11
(lp484
g174
ag179
asg179
g0
(g180
g2
Ntp485
Rp486
(dp487
g14
I00
sg30
I00
sg62
g222
sg15
I00
sbsbsg277
g0
(g148
g2
Ntp488
Rp489
(dp490
g14
I00
sg30
I01
sg15
I00
sg174
g0
(g93
g2
Ntp491
Rp492
(dp493
g14
I00
sg30
I00
sg62
I541321
sg15
I00
sbsg11
(lp494
g174
ag179
asg179
g0
(g180
g2
Ntp495
Rp496
(dp497
g14
I00
sg30
I00
sg62
g184
sg15
I00
sbsbsg17
g18
sbsS'HcalReLabel'
p498
g0
(g148
g2
Ntp499
Rp500
(dp501
g14
I00
sg30
I01
sg15
I00
sS'RelabelRules'
p502
g0
(g148
g2
Ntp503
Rp504
(dp505
g14
I00
sg30
I00
sg15
I00
sS'Eta16'
p506
g0
(g153
g20
(lp507
I1
aI1
aI2
aI2
aI2
aI2
aI2
aI2
aI2
aI3
aI3
aI3
aI3
aI3
aI3
aI3
aI3
aI3
aI3
atp508
Rp509
(dp510
g14
I00
sg30
I00
sg15
I00
sbsS'Eta17'
p511
g0
(g153
g20
(lp512
I1
aI1
aI2
aI2
aI3
aI3
aI3
aI4
aI4
aI4
aI4
aI4
aI5
aI5
aI5
aI5
aI5
aI5
aI5
atp513
Rp514
(dp515
g14
I00
sg30
I00
sg15
I00
sbsS'CorrectPhi'
p516
g0
(cFWCore.ParameterSet.Types
bool
p517
g2
Ntp518
Rp519
(dp520
g14
I00
sg30
I00
sg62
I00
sg15
I00
sbsg11
(lp521
g506
ag511
aS'Eta1'
p522
ag516
asg522
g0
(g153
g20
(lp523
I1
aI2
aI2
aI2
aI3
aI3
aI3
aI3
aI3
aI3
aI3
aI3
aI3
aI3
aI3
aI3
aI3
aI3
aI3
atp524
Rp525
(dp526
g14
I00
sg30
I00
sg15
I00
sbsbsg11
(lp527
g502
aS'RelabelHits'
p528
asg32
g498
sg528
g0
(g517
g2
Ntp529
Rp530
(dp531
g14
I00
sg30
I00
sg62
I00
sg15
I00
sbsbsS'HcalHardcodeGeometryEP'
p532
g0
(g7
g2
Ntp533
Rp534
(dp535
g11
(lp536
g498
asg14
I00
sg498
g500
sg15
I00
sg16
I40
sg17
g18
sg32
g532
sg33
g532
sbsS'trackerSLHCGeometry'
p537
g0
(g7
g2
Ntp538
Rp539
(dp540
g11
(lp541
S'appendToDataLabel'
p542
aS'fromDDD'
p543
aS'trackerGeometryConstants'
p544
aS'applyAlignment'
p545
aS'alignmentsLabel'
p546
asg14
I00
sg542
g0
(g180
g2
Ntp547
Rp548
(dp549
g14
I00
sg30
I01
sg62
g126
sg15
I00
sbsg544
g0
(g148
g2
Ntp550
Rp551
(dp552
g14
I00
sg30
I01
sS'ROCS_X'
p553
g0
(cFWCore.ParameterSet.Types
int32
p554
g2
Ntp555
Rp556
(dp557
g14
I00
sg30
I01
sg62
I2
sg15
I00
sbsS'ROCS_Y'
p558
g0
(g554
g2
Ntp559
Rp560
(dp561
g14
I00
sg30
I01
sg62
I8
sg15
I00
sbsS'upgradeGeometry'
p562
g0
(g517
g2
Ntp563
Rp564
(dp565
g14
I00
sg30
I01
sg62
I01
sg15
I00
sbsS'BIG_PIX_PER_ROC_Y'
p566
g0
(g554
g2
Ntp567
Rp568
(dp569
g14
I00
sg30
I01
sg62
I0
sg15
I00
sbsS'BIG_PIX_PER_ROC_X'
p570
g0
(g554
g2
Ntp571
Rp572
(dp573
g14
I00
sg30
I01
sg62
I0
sg15
I00
sbsS'ROWS_PER_ROC'
p574
g0
(g554
g2
Ntp575
Rp576
(dp577
g14
I00
sg30
I01
sg62
I80
sg15
I00
sbsg11
(lp578
g553
ag558
ag562
ag566
ag570
ag574
aS'COLS_PER_ROC'
p579
asg579
g0
(g554
g2
Ntp580
Rp581
(dp582
g14
I00
sg30
I01
sg62
I52
sg15
I00
sbsg15
I00
sbsg15
I01
sg546
g0
(g180
g2
Ntp583
Rp584
(dp585
g14
I00
sg30
I01
sg62
g126
sg15
I00
sbsg17
g18
sg16
I40
sg32
g537
sg543
g0
(g517
g2
Ntp586
Rp587
(dp588
g14
I00
sg30
I01
sg62
I01
sg15
I00
sbsg545
g0
(g517
g2
Ntp589
Rp590
(dp591
g14
I00
sg30
I01
sg62
I00
sg15
I00
sbsg33
S'TrackerDigiGeometryESModule'
p592
sbsS'HcalSimNumberingInitialization'
p593
g0
(g7
g2
Ntp594
Rp595
(dp596
g11
(lp597
sg14
I00
sg15
I00
sg16
I40
sg17
g18
sg32
g593
sg33
g593
sbsS'trackerTopologyConstants'
p598
g0
(g7
g2
Ntp599
Rp600
(dp601
g14
I00
sg16
I40
sS'tib_str_int_extStartBit'
p602
g0
(g93
g2
Ntp603
Rp604
(dp605
g14
I00
sg30
I01
sg62
I10
sg15
I00
sbsS'tib_layerMask'
p606
g0
(g93
g2
Ntp607
Rp608
(dp609
g14
I00
sg30
I01
sg62
I7
sg15
I00
sbsS'tib_str_fw_bwStartBit'
p610
g0
(g93
g2
Ntp611
Rp612
(dp613
g14
I00
sg30
I01
sg62
I12
sg15
I00
sbsS'pxf_bladeMask'
p614
g0
(g93
g2
Ntp615
Rp616
(dp617
g14
I00
sg30
I01
sg62
I63
sg15
I00
sbsS'pxb_moduleStartBit'
p618
g0
(g93
g2
Ntp619
Rp620
(dp621
g14
I00
sg30
I01
sg62
I2
sg15
I00
sbsS'pxb_ladderStartBit'
p622
g0
(g93
g2
Ntp623
Rp624
(dp625
g14
I00
sg30
I01
sg62
I8
sg15
I00
sbsS'pxb_layerStartBit'
p626
g0
(g93
g2
Ntp627
Rp628
(dp629
g14
I00
sg30
I01
sg62
I16
sg15
I00
sbsS'pxb_layerMask'
p630
g0
(g93
g2
Ntp631
Rp632
(dp633
g14
I00
sg30
I01
sg62
I15
sg15
I00
sbsS'tec_wheelStartBit'
p634
g0
(g93
g2
Ntp635
Rp636
(dp637
g14
I00
sg30
I01
sg62
I14
sg15
I00
sbsS'tib_str_fw_bwMask'
p638
g0
(g93
g2
Ntp639
Rp640
(dp641
g14
I00
sg30
I01
sg62
I3
sg15
I00
sbsS'tec_ringStartBit'
p642
g0
(g93
g2
Ntp643
Rp644
(dp645
g14
I00
sg30
I01
sg62
I5
sg15
I00
sbsg33
S'TrackerTopologyEP'
p646
sS'tib_moduleStartBit'
p647
g0
(g93
g2
Ntp648
Rp649
(dp650
g14
I00
sg30
I01
sg62
I2
sg15
I00
sbsg11
(lp651
S'tob_rodStartBit'
p652
ag602
ag606
ag614
ag542
ag622
ag626
ag634
aS'tib_str_int_extMask'
p653
ag642
ag647
aS'tib_sterMask'
p654
aS'tid_sideStartBit'
p655
aS'tid_module_fw_bwStartBit'
p656
aS'tid_ringMask'
p657
aS'tob_sterMask'
p658
aS'tec_petal_fw_bwStartBit'
p659
aS'tec_ringMask'
p660
aS'tib_strMask'
p661
aS'tec_sterMask'
p662
aS'tec_wheelMask'
p663
aS'tec_sideStartBit'
p664
aS'pxb_moduleMask'
p665
aS'pxf_panelStartBit'
p666
aS'tid_sideMask'
p667
aS'tob_moduleMask'
p668
aS'tid_ringStartBit'
p669
aS'pxf_sideMask'
p670
ag618
aS'pxf_diskStartBit'
p671
ag638
aS'tec_moduleMask'
p672
aS'tid_sterMask'
p673
aS'tob_rod_fw_bwMask'
p674
aS'tob_layerStartBit'
p675
aS'tec_petal_fw_bwMask'
p676
aS'tib_strStartBit'
p677
aS'tec_sterStartBit'
p678
aS'tid_moduleMask'
p679
aS'tib_sterStartBit'
p680
aS'tid_sterStartBit'
p681
aS'pxf_moduleStartBit'
p682
aS'pxf_diskMask'
p683
aS'tob_moduleStartBit'
p684
aS'tid_wheelStartBit'
p685
aS'tob_layerMask'
p686
aS'tid_module_fw_bwMask'
p687
aS'tob_rod_fw_bwStartBit'
p688
aS'tec_petalMask'
p689
aS'pxb_ladderMask'
p690
aS'tec_moduleStartBit'
p691
aS'tob_rodMask'
p692
aS'tec_sideMask'
p693
aS'pxf_sideStartBit'
p694
ag630
aS'tib_layerStartBit'
p695
aS'pxf_panelMask'
p696
aS'tib_moduleMask'
p697
aS'pxf_bladeStartBit'
p698
aS'tid_wheelMask'
p699
aS'tob_sterStartBit'
p700
aS'tid_moduleStartBit'
p701
aS'tec_petalStartBit'
p702
ag610
aS'pxf_moduleMask'
p703
asg655
g0
(g93
g2
Ntp704
Rp705
(dp706
g14
I00
sg30
I01
sg62
I13
sg15
I00
sbsg685
g0
(g93
g2
Ntp707
Rp708
(dp709
g14
I00
sg30
I01
sg62
I11
sg15
I00
sbsg657
g0
(g93
g2
Ntp710
Rp711
(dp712
g14
I00
sg30
I01
sg62
I3
sg15
I00
sbsg670
g0
(g93
g2
Ntp713
Rp714
(dp715
g14
I00
sg30
I01
sg62
I3
sg15
I00
sbsg659
g0
(g93
g2
Ntp716
Rp717
(dp718
g14
I00
sg30
I01
sg62
I12
sg15
I00
sbsg660
g0
(g93
g2
Ntp719
Rp720
(dp721
g14
I00
sg30
I01
sg62
I7
sg15
I00
sbsg661
g0
(g93
g2
Ntp722
Rp723
(dp724
g14
I00
sg30
I01
sg62
I63
sg15
I00
sbsg662
g0
(g93
g2
Ntp725
Rp726
(dp727
g14
I00
sg30
I01
sg62
I3
sg15
I00
sbsg664
g0
(g93
g2
Ntp728
Rp729
(dp730
g14
I00
sg30
I01
sg62
I18
sg15
I00
sbsg665
g0
(g93
g2
Ntp731
Rp732
(dp733
g14
I00
sg30
I01
sg62
I63
sg15
I00
sbsg673
g0
(g93
g2
Ntp734
Rp735
(dp736
g14
I00
sg30
I01
sg62
I3
sg15
I00
sbsg666
g0
(g93
g2
Ntp737
Rp738
(dp739
g14
I00
sg30
I01
sg62
I8
sg15
I00
sbsg667
g0
(g93
g2
Ntp740
Rp741
(dp742
g14
I00
sg30
I01
sg62
I3
sg15
I00
sbsg668
g0
(g93
g2
Ntp743
Rp744
(dp745
g14
I00
sg30
I01
sg62
I7
sg15
I00
sbsg669
g0
(g93
g2
Ntp746
Rp747
(dp748
g14
I00
sg30
I01
sg62
I9
sg15
I00
sbsg654
g0
(g93
g2
Ntp749
Rp750
(dp751
g14
I00
sg30
I01
sg62
I3
sg15
I00
sbsg542
g0
(g180
g2
Ntp752
Rp753
(dp754
g14
I00
sg30
I01
sg62
g126
sg15
I00
sbsg671
g0
(g93
g2
Ntp755
Rp756
(dp757
g14
I00
sg30
I01
sg62
I16
sg15
I00
sbsg653
g0
(g93
g2
Ntp758
Rp759
(dp760
g14
I00
sg30
I01
sg62
I3
sg15
I00
sbsg672
g0
(g93
g2
Ntp761
Rp762
(dp763
g14
I00
sg30
I01
sg62
I7
sg15
I00
sbsg658
g0
(g93
g2
Ntp764
Rp765
(dp766
g14
I00
sg30
I01
sg62
I3
sg15
I00
sbsg674
g0
(g93
g2
Ntp767
Rp768
(dp769
g14
I00
sg30
I01
sg62
I3
sg15
I00
sbsg675
g0
(g93
g2
Ntp770
Rp771
(dp772
g14
I00
sg30
I01
sg62
I14
sg15
I00
sbsg676
g0
(g93
g2
Ntp773
Rp774
(dp775
g14
I00
sg30
I01
sg62
I3
sg15
I00
sbsg695
g0
(g93
g2
Ntp776
Rp777
(dp778
g14
I00
sg30
I01
sg62
I14
sg15
I00
sbsg678
g0
(g93
g2
Ntp779
Rp780
(dp781
g14
I00
sg30
I01
sg62
I0
sg15
I00
sbsg679
g0
(g93
g2
Ntp782
Rp783
(dp784
g14
I00
sg30
I01
sg62
I31
sg15
I00
sbsg680
g0
(g93
g2
Ntp785
Rp786
(dp787
g14
I00
sg30
I01
sg62
I0
sg15
I00
sbsg17
g18
sg681
g0
(g93
g2
Ntp788
Rp789
(dp790
g14
I00
sg30
I01
sg62
I0
sg15
I00
sbsg682
g0
(g93
g2
Ntp791
Rp792
(dp793
g14
I00
sg30
I01
sg62
I2
sg15
I00
sbsg683
g0
(g93
g2
Ntp794
Rp795
(dp796
g14
I00
sg30
I01
sg62
I15
sg15
I00
sbsg694
g0
(g93
g2
Ntp797
Rp798
(dp799
g14
I00
sg30
I01
sg62
I23
sg15
I00
sbsg656
g0
(g93
g2
Ntp800
Rp801
(dp802
g14
I00
sg30
I01
sg62
I7
sg15
I00
sbsg686
g0
(g93
g2
Ntp803
Rp804
(dp805
g14
I00
sg30
I01
sg62
I7
sg15
I00
sbsg687
g0
(g93
g2
Ntp806
Rp807
(dp808
g14
I00
sg30
I01
sg62
I3
sg15
I00
sbsg688
g0
(g93
g2
Ntp809
Rp810
(dp811
g14
I00
sg30
I01
sg62
I12
sg15
I00
sbsg689
g0
(g93
g2
Ntp812
Rp813
(dp814
g14
I00
sg30
I01
sg62
I15
sg15
I00
sbsg690
g0
(g93
g2
Ntp815
Rp816
(dp817
g14
I00
sg30
I01
sg62
I255
sg15
I00
sbsg691
g0
(g93
g2
Ntp818
Rp819
(dp820
g14
I00
sg30
I01
sg62
I2
sg15
I00
sbsg15
I00
sg692
g0
(g93
g2
Ntp821
Rp822
(dp823
g14
I00
sg30
I01
sg62
I127
sg15
I00
sbsg677
g0
(g93
g2
Ntp824
Rp825
(dp826
g14
I00
sg30
I01
sg62
I4
sg15
I00
sbsg663
g0
(g93
g2
Ntp827
Rp828
(dp829
g14
I00
sg30
I01
sg62
I15
sg15
I00
sbsg652
g0
(g93
g2
Ntp830
Rp831
(dp832
g14
I00
sg30
I01
sg62
I5
sg15
I00
sbsg696
g0
(g93
g2
Ntp833
Rp834
(dp835
g14
I00
sg30
I01
sg62
I3
sg15
I00
sbsg697
g0
(g93
g2
Ntp836
Rp837
(dp838
g14
I00
sg30
I01
sg62
I3
sg15
I00
sbsg698
g0
(g93
g2
Ntp839
Rp840
(dp841
g14
I00
sg30
I01
sg62
I10
sg15
I00
sbsg699
g0
(g93
g2
Ntp842
Rp843
(dp844
g14
I00
sg30
I01
sg62
I3
sg15
I00
sbsg700
g0
(g93
g2
Ntp845
Rp846
(dp847
g14
I00
sg30
I01
sg62
I0
sg15
I00
sbsg701
g0
(g93
g2
Ntp848
Rp849
(dp850
g14
I00
sg30
I01
sg62
I2
sg15
I00
sbsg702
g0
(g93
g2
Ntp851
Rp852
(dp853
g14
I00
sg30
I01
sg62
I8
sg15
I00
sbsg684
g0
(g93
g2
Ntp854
Rp855
(dp856
g14
I00
sg30
I01
sg62
I2
sg15
I00
sbsg32
g598
sg703
g0
(g93
g2
Ntp857
Rp858
(dp859
g14
I00
sg30
I01
sg62
I63
sg15
I00
sbsg693
g0
(g93
g2
Ntp860
Rp861
(dp862
g14
I00
sg30
I01
sg62
I3
sg15
I00
sbsbsS'_Process__InExtendCall'
p863
I00
sS'HGCalHESciGeometryESProducer'
p864
g0
(g7
g2
Ntp865
Rp866
(dp867
g11
(lp868
S'Name'
p869
asg14
I00
sg869
g0
(g180
g2
Ntp870
Rp871
(dp872
g14
I00
sg30
I00
sg62
S'HGCalHEScintillatorSensitive'
p873
sg15
I00
sbsg16
I40
sg17
g18
sg32
g864
sg33
S'HGCalGeometryESProducer'
p874
sg15
I00
sbsS'_Process__producers'
p875
(dp876
S'randomEngineStateProducer'
p877
g0
(g48
g2
Ntp878
Rp879
(dp880
g11
(lp881
sg14
I00
sg15
I00
sg16
I170
sg17
S'/cvmfs/cms.cern.ch/slc6_amd64_gcc472/cms/cmssw-patch/CMSSW_6_2_0_SLHC26_patch3/python/IOMC/RandomEngine/IOMC_cff.py'
p882
sg32
g877
sg33
S'RandomEngineStateProducer'
p883
sbsg76
g50
sg83
g79
ssS'siPixelQualityESProducer'
p884
g0
(g7
g2
Ntp885
Rp886
(dp887
g11
(lp888
S'ListOfRecordToMerge'
p889
asg14
I00
sg15
I01
sg16
I40
sg17
g18
sg889
g0
(cFWCore.ParameterSet.Types
VPSet
p890
g20
(lp891
g0
(g148
g2
Ntp892
Rp893
(dp894
g14
I00
sg30
I01
sg15
I00
sS'record'
p895
g0
(g180
g2
Ntp896
Rp897
(dp898
g14
I00
sg30
I01
sg62
S'SiPixelQualityFromDbRcd'
p899
sg15
I00
sbsS'tag'
p900
g0
(g180
g2
Ntp901
Rp902
(dp903
g14
I00
sg30
I01
sg62
g126
sg15
I00
sbsg11
(lp904
g895
ag900
asbag0
(g148
g2
Ntp905
Rp906
(dp907
g14
I00
sg30
I01
sg15
I00
sg895
g0
(g180
g2
Ntp908
Rp909
(dp910
g14
I00
sg30
I01
sg62
S'SiPixelDetVOffRcd'
p911
sg15
I00
sbsg900
g0
(g180
g2
Ntp912
Rp913
(dp914
g14
I00
sg30
I01
sg62
g126
sg15
I00
sbsg11
(lp915
g895
ag900
asbatp916
Rp917
(dp918
g14
I00
sg30
I01
sg15
I00
sg31
I1
sbsg32
g884
sg33
S'SiPixelQualityESProducer'
p919
sbsS'GlobalTag'
p920
g0
(cFWCore.ParameterSet.Modules
ESSource
p921
g2
Ntp922
Rp923
(dp924
g11
(lp925
S'DBParameters'
p926
aS'BlobStreamerName'
p927
aS'toGet'
p928
aS'connect'
p929
aS'globaltag'
p930
asg14
I00
sg15
I01
sg930
g0
(g180
g2
Ntp931
Rp932
(dp933
g14
I00
sg30
I01
sg62
S'PH2_1K_FB_V6::All'
p934
sg15
I00
sbsg16
I10
sg17
S'/cvmfs/cms.cern.ch/slc6_amd64_gcc472/cms/cmssw-patch/CMSSW_6_2_0_SLHC26_patch3/python/Configuration/StandardSequences/FrontierConditions_GlobalTag_cfi.py'
p935
sg928
g0
(g890
g20
(lp936
tp937
Rp938
(dp939
g14
I00
sg30
I01
sg15
I00
sg31
I1
sbsg926
g0
(g148
g2
Ntp940
Rp941
(dp942
g14
I00
sg30
I01
sS'authenticationPath'
p943
g0
(g180
g2
Ntp944
Rp945
(dp946
g14
I00
sg30
I00
sg62
g126
sg15
I00
sbsS'connectionRetrialPeriod'
p947
g0
(g554
g2
Ntp948
Rp949
(dp950
g14
I00
sg30
I00
sg62
I10
sg15
I00
sbsg15
I00
sS'idleConnectionCleanupPeriod'
p951
g0
(g554
g2
Ntp952
Rp953
(dp954
g14
I00
sg30
I00
sg62
I10
sg15
I00
sbsS'messageLevel'
p955
g0
(g554
g2
Ntp956
Rp957
(dp958
g14
I00
sg30
I00
sg62
I0
sg15
I00
sbsS'enablePoolAutomaticCleanUp'
p959
g0
(g517
g2
Ntp960
Rp961
(dp962
g14
I00
sg30
I00
sg62
I00
sg15
I00
sbsS'enableConnectionSharing'
p963
g0
(g517
g2
Ntp964
Rp965
(dp966
g14
I00
sg30
I00
sg62
I01
sg15
I00
sbsS'enableReadOnlySessionOnUpdateConnection'
p967
g0
(g517
g2
Ntp968
Rp969
(dp970
g14
I00
sg30
I00
sg62
I00
sg15
I00
sbsg11
(lp971
g943
ag967
ag951
ag955
ag959
ag963
aS'connectionRetrialTimeOut'
p972
aS'connectionTimeOut'
p973
aS'authenticationSystem'
p974
ag947
asg973
g0
(g554
g2
Ntp975
Rp976
(dp977
g14
I00
sg30
I00
sg62
I60
sg15
I00
sbsg974
g0
(g554
g2
Ntp978
Rp979
(dp980
g14
I00
sg30
I00
sg62
I0
sg15
I00
sbsg972
g0
(g554
g2
Ntp981
Rp982
(dp983
g14
I00
sg30
I00
sg62
I60
sg15
I00
sbsbsg929
g0
(g180
g2
Ntp984
Rp985
(dp986
g14
I00
sg30
I01
sg62
S'frontier://FrontierProd/CMS_COND_31X_GLOBALTAG'
p987
sg15
I00
sbsg32
g920
sg927
g0
(g180
g2
Ntp988
Rp989
(dp990
g14
I00
sg30
I00
sg62
S'TBufferBlobStreamingService'
p991
sg15
I00
sbsg33
S'PoolDBESSource'
p992
sbsS'EcalBarrelGeometryEP'
p993
g0
(g7
g2
Ntp994
Rp995
(dp996
g11
(lp997
g545
asg14
I00
sg15
I00
sg16
I40
sg17
g18
sg32
g993
sg545
g0
(g517
g2
Ntp998
Rp999
(dp1000
g14
I00
sg30
I01
sg62
I00
sg15
I00
sbsg33
g993
sbsS'_Process__endpaths'
p1001
g0
(cFWCore.ParameterSet.DictTypes
SortedKeysDict
p1002
c__builtin__
dict
p1003
(dp1004
tp1005
Rp1006
(dp1007
S'list'
p1008
(lp1009
sbsS'p'
p1010
g0
(cFWCore.ParameterSet.SequenceTypes
Path
p1011
g2
Ntp1012
Rp1013
(dp1014
g14
I00
sg41
g0
(g42
g2
Ntp1015
Rp1016
(dp1017
g46
(lp1018
g0
(cFWCore.ParameterSet.Modules
EDAnalyzer
p1019
g2
Ntp1020
Rp1021
(dp1022
g11
(lp1023
sg14
I00
sg15
I00
sg16
I25
sg17
S'analysisTiming.py'
p1024
sg32
S'demo'
p1025
sg33
S'ME0TimingAnalysis'
p1026
sbasbsg15
I00
sg32
g1010
sbsS'MuonDetLayerGeometryESProducer'
p1027
g0
(g7
g2
Ntp1028
Rp1029
(dp1030
g11
(lp1031
sg14
I00
sg15
I00
sg16
I40
sg17
g18
sg32
g1027
sg33
g1027
sbsg83
g79
sS'MessageLogger'
p1032
g0
(g104
g2
Ntp1033
Rp1034
(dp1035
g14
I00
sS'suppressInfo'
p1036
g0
(g19
g20
(lp1037
tp1038
Rp1039
(dp1040
g14
I00
sg30
I00
sg15
I00
sg31
I1
sbsS'suppressDebug'
p1041
g0
(g19
g20
(lp1042
tp1043
Rp1044
(dp1045
g14
I00
sg30
I00
sg15
I00
sg31
I1
sbsS'cout'
p1046
g0
(g148
g2
Ntp1047
Rp1048
(dp1049
g14
I00
sg30
I00
sS'placeholder'
p1050
g0
(g517
g2
Ntp1051
Rp1052
(dp1053
g14
I00
sg30
I00
sg62
I01
sg15
I00
sbsg15
I00
sg11
(lp1054
g1050
asbsg16
I10
sS'debugModules'
p1055
g0
(g19
g20
(lp1056
tp1057
Rp1058
(dp1059
g14
I00
sg30
I00
sg15
I00
sg31
I1
sbsg33
g1032
sS'fwkJobReports'
p1060
g0
(g19
g20
(lp1061
S'FrameworkJobReport'
p1062
atp1063
Rp1064
(dp1065
g14
I00
sg30
I00
sg15
I00
sg31
I1
sbsg11
(lp1066
g1036
aS'debugs'
p1067
ag1041
ag1046
aS'cerr_stats'
p1068
aS'warnings'
p1069
aS'default'
p1070
aS'statistics'
p1071
aS'cerr'
p1072
ag1062
aS'suppressWarning'
p1073
aS'errors'
p1074
aS'destinations'
p1075
ag1055
aS'infos'
p1076
aS'categories'
p1077
ag1060
asg1071
g0
(g19
g20
(lp1078
g1068
atp1079
Rp1080
(dp1081
g14
I00
sg30
I00
sg15
I00
sg31
I1
sbsg17
g18
sg1075
g0
(g19
g20
(lp1082
g1069
ag1074
ag1076
ag1067
ag1046
ag1072
atp1083
Rp1084
(dp1085
g14
I00
sg30
I00
sg15
I00
sg31
I1
sbsg1067
g0
(g148
g2
Ntp1086
Rp1087
(dp1088
g14
I00
sg30
I00
sg1050
g0
(g517
g2
Ntp1089
Rp1090
(dp1091
g14
I00
sg30
I00
sg62
I01
sg15
I00
sbsg15
I00
sg11
(lp1092
g1050
asbsg1069
g0
(g148
g2
Ntp1093
Rp1094
(dp1095
g14
I00
sg30
I00
sg1050
g0
(g517
g2
Ntp1096
Rp1097
(dp1098
g14
I00
sg30
I00
sg62
I01
sg15
I00
sbsg15
I00
sg11
(lp1099
g1050
asbsg1074
g0
(g148
g2
Ntp1100
Rp1101
(dp1102
g14
I00
sg30
I00
sg1050
g0
(g517
g2
Ntp1103
Rp1104
(dp1105
g14
I00
sg30
I00
sg62
I01
sg15
I00
sbsg15
I00
sg11
(lp1106
g1050
asbsg1062
g0
(g148
g2
Ntp1107
Rp1108
(dp1109
g14
I00
sg30
I00
sg15
I00
sg1070
g0
(g148
g2
Ntp1110
Rp1111
(dp1112
g14
I00
sg30
I00
sS'limit'
p1113
g0
(g554
g2
Ntp1114
Rp1115
(dp1116
g14
I00
sg30
I00
sg62
I0
sg15
I00
sbsg15
I00
sg11
(lp1117
g1113
asbsS'FwkJob'
p1118
g0
(g148
g2
Ntp1119
Rp1120
(dp1121
g14
I00
sg30
I00
sg15
I00
sg1113
g0
(g554
g2
Ntp1122
Rp1123
(dp1124
g14
I00
sg30
I00
sg62
I10000000
sg15
I00
sbsg11
(lp1125
S'optionalPSet'
p1126
ag1113
asg1126
g0
(g517
g2
Ntp1127
Rp1128
(dp1129
g14
I00
sg30
I00
sg62
I01
sg15
I00
sbsbsg11
(lp1130
g1070
ag1126
ag1118
asg1126
g0
(g517
g2
Ntp1131
Rp1132
(dp1133
g14
I00
sg30
I00
sg62
I01
sg15
I00
sbsbsg1073
g0
(g19
g20
(lp1134
tp1135
Rp1136
(dp1137
g14
I00
sg30
I00
sg15
I00
sg31
I1
sbsg1076
g0
(g148
g2
Ntp1138
Rp1139
(dp1140
g14
I00
sg30
I00
sg15
I00
sS'Root_NoDictionary'
p1141
g0
(g148
g2
Ntp1142
Rp1143
(dp1144
g14
I00
sg30
I00
sg15
I00
sg1113
g0
(g554
g2
Ntp1145
Rp1146
(dp1147
g14
I00
sg30
I00
sg62
I0
sg15
I00
sbsg11
(lp1148
g1126
ag1113
asg1126
g0
(g517
g2
Ntp1149
Rp1150
(dp1151
g14
I00
sg30
I00
sg62
I01
sg15
I00
sbsbsg11
(lp1152
g1126
ag1141
ag1050
asg1126
g0
(g517
g2
Ntp1153
Rp1154
(dp1155
g14
I00
sg30
I00
sg62
I01
sg15
I00
sbsg1050
g0
(g517
g2
Ntp1156
Rp1157
(dp1158
g14
I00
sg30
I00
sg62
I01
sg15
I00
sbsbsg1077
g0
(g19
g20
(lp1159
g1118
aS'FwkReport'
p1160
aS'FwkSummary'
p1161
ag1141
atp1162
Rp1163
(dp1164
g14
I00
sg30
I00
sg15
I00
sg31
I1
sbsg15
I00
sg1068
g0
(g148
g2
Ntp1165
Rp1166
(dp1167
g14
I00
sg30
I00
sg15
I00
sg1126
g0
(g517
g2
Ntp1168
Rp1169
(dp1170
g14
I00
sg30
I00
sg62
I01
sg15
I00
sbsg11
(lp1171
S'threshold'
p1172
aS'output'
p1173
ag1126
asg1172
g0
(g180
g2
Ntp1174
Rp1175
(dp1176
g14
I00
sg30
I00
sg62
S'WARNING'
p1177
sg15
I00
sbsg1173
g0
(g180
g2
Ntp1178
Rp1179
(dp1180
g14
I00
sg30
I00
sg62
g1072
sg15
I00
sbsbsg1070
g0
(g148
g2
Ntp1181
Rp1182
(dp1183
g14
I00
sg30
I00
sg15
I00
sg11
(lp1184
sbsg1072
g0
(g148
g2
Ntp1185
Rp1186
(dp1187
g14
I00
sg30
I00
sS'noTimeStamps'
p1188
g0
(g517
g2
Ntp1189
Rp1190
(dp1191
g14
I00
sg30
I00
sg62
I00
sg15
I00
sbsg1160
g0
(g148
g2
Ntp1192
Rp1193
(dp1194
g14
I00
sg30
I00
sg15
I01
sS'reportEvery'
p1195
g0
(g554
g2
Ntp1196
Rp1197
(dp1198
g14
I00
sg30
I00
sg62
I100
sg15
I00
sbsg1113
g0
(g554
g2
Ntp1199
Rp1200
(dp1201
g14
I00
sg30
I00
sg62
I10000000
sg15
I00
sbsg11
(lp1202
g1195
ag1126
ag1113
asg1126
g0
(g517
g2
Ntp1203
Rp1204
(dp1205
g14
I00
sg30
I00
sg62
I01
sg15
I00
sbsbsg15
I00
sg1070
g0
(g148
g2
Ntp1206
Rp1207
(dp1208
g14
I00
sg30
I00
sg1113
g0
(g554
g2
Ntp1209
Rp1210
(dp1211
g14
I00
sg30
I00
sg62
I10000000
sg15
I00
sbsg15
I00
sg11
(lp1212
g1113
asbsg1141
g0
(g148
g2
Ntp1213
Rp1214
(dp1215
g14
I00
sg30
I00
sg15
I00
sg1113
g0
(g554
g2
Ntp1216
Rp1217
(dp1218
g14
I00
sg30
I00
sg62
I0
sg15
I00
sbsg11
(lp1219
g1126
ag1113
asg1126
g0
(g517
g2
Ntp1220
Rp1221
(dp1222
g14
I00
sg30
I00
sg62
I01
sg15
I00
sbsbsS'INFO'
p1223
g0
(g148
g2
Ntp1224
Rp1225
(dp1226
g14
I00
sg30
I00
sg1113
g0
(g554
g2
Ntp1227
Rp1228
(dp1229
g14
I00
sg30
I00
sg62
I0
sg15
I00
sbsg15
I00
sg11
(lp1230
g1113
asbsg1126
g0
(g517
g2
Ntp1231
Rp1232
(dp1233
g14
I00
sg30
I00
sg62
I01
sg15
I00
sbsg1118
g0
(g148
g2
Ntp1234
Rp1235
(dp1236
g14
I00
sg30
I00
sg15
I00
sg1113
g0
(g554
g2
Ntp1237
Rp1238
(dp1239
g14
I00
sg30
I00
sg62
I0
sg15
I00
sbsg11
(lp1240
g1126
ag1113
asg1126
g0
(g517
g2
Ntp1241
Rp1242
(dp1243
g14
I00
sg30
I00
sg62
I01
sg15
I00
sbsbsg1161
g0
(g148
g2
Ntp1244
Rp1245
(dp1246
g14
I00
sg30
I00
sg15
I00
sg1195
g0
(g554
g2
Ntp1247
Rp1248
(dp1249
g14
I00
sg30
I00
sg62
I1
sg15
I00
sbsg1113
g0
(g554
g2
Ntp1250
Rp1251
(dp1252
g14
I00
sg30
I00
sg62
I10000000
sg15
I00
sbsg11
(lp1253
g1195
ag1126
ag1113
asg1126
g0
(g517
g2
Ntp1254
Rp1255
(dp1256
g14
I00
sg30
I00
sg62
I01
sg15
I00
sbsbsg11
(lp1257
g1223
ag1188
ag1160
ag1070
ag1141
ag1172
ag1118
ag1161
ag1126
asg1172
g0
(g180
g2
Ntp1258
Rp1259
(dp1260
g14
I00
sg30
I00
sg62
g1223
sg15
I00
sbsbsbsS'XMLIdealGeometryESSource'
p1261
g0
(g921
g2
Ntp1262
Rp1263
(dp1264
g11
(lp1265
S'geomXMLFiles'
p1266
aS'rootNodeName'
p1267
asg14
I00
sg15
I00
sg16
I153
sg1267
g0
(g180
g2
Ntp1268
Rp1269
(dp1270
g14
I00
sg30
I01
sg62
S'cms:OCMS'
p1271
sg15
I00
sbsg1266
g0
(g19
g20
(lp1272
S'Geometry/CMSCommonData/data/materials.xml'
p1273
aS'Geometry/CMSCommonData/data/rotations.xml'
p1274
aS'Geometry/CMSCommonData/data/extend/cmsextent.xml'
p1275
aS'Geometry/CMSCommonData/data/PhaseI/cms.xml'
p1276
aS'Geometry/CMSCommonData/data/cmsMother.xml'
p1277
aS'Geometry/CMSCommonData/data/cmsTracker.xml'
p1278
aS'Geometry/CMSCommonData/data/eta3/etaMax.xml'
p1279
aS'Geometry/CMSCommonData/data/PhaseII/caloBase.xml'
p1280
aS'Geometry/CMSCommonData/data/cmsCalo.xml'
p1281
aS'Geometry/CMSCommonData/data/PhaseII/muonBase.xml'
p1282
aS'Geometry/CMSCommonData/data/cmsMuon.xml'
p1283
aS'Geometry/CMSCommonData/data/mgnt.xml'
p1284
aS'Geometry/CMSCommonData/data/PhaseII/beampipe.xml'
p1285
aS'Geometry/CMSCommonData/data/cmsBeam.xml'
p1286
aS'Geometry/CMSCommonData/data/muonMB.xml'
p1287
aS'Geometry/CMSCommonData/data/muonMagnet.xml'
p1288
aS'Geometry/CMSCommonData/data/cavern.xml'
p1289
aS'Geometry/TrackerCommonData/data/PhaseII/Pixel10D/pixfwdMaterials.xml'
p1290
aS'Geometry/TrackerCommonData/data/pixfwdCommon.xml'
p1291
aS'Geometry/TrackerCommonData/data/PhaseII/Pixel10D/pixfwdCylinder.xml'
p1292
aS'Geometry/TrackerCommonData/data/PhaseII/Pixel10D/pixfwd.xml'
p1293
aS'Geometry/TrackerCommonData/data/PhaseII/Pixel10D/pixfwdDisks.xml'
p1294
aS'Geometry/TrackerCommonData/data/PhaseII/Pixel10D/pixfwdInnerDisk1.xml'
p1295
aS'Geometry/TrackerCommonData/data/PhaseII/Pixel10D/pixfwdInnerDisk2.xml'
p1296
aS'Geometry/TrackerCommonData/data/PhaseII/Pixel10D/pixfwdInnerDisk3.xml'
p1297
aS'Geometry/TrackerCommonData/data/PhaseII/Pixel10D/pixfwdInnerDisk4.xml'
p1298
aS'Geometry/TrackerCommonData/data/PhaseII/Pixel10D/pixfwdInnerDisk5.xml'
p1299
aS'Geometry/TrackerCommonData/data/PhaseII/Pixel10D/pixfwdInnerDisk6.xml'
p1300
aS'Geometry/TrackerCommonData/data/PhaseII/Pixel10D/pixfwdInnerDisk7.xml'
p1301
aS'Geometry/TrackerCommonData/data/PhaseII/Pixel10D/pixfwdOuterDisk1.xml'
p1302
aS'Geometry/TrackerCommonData/data/PhaseII/Pixel10D/pixfwdOuterDisk2.xml'
p1303
aS'Geometry/TrackerCommonData/data/PhaseII/Pixel10D/pixfwdOuterDisk3.xml'
p1304
aS'Geometry/TrackerCommonData/data/PhaseII/Pixel10D/pixfwdOuterDisk4.xml'
p1305
aS'Geometry/TrackerCommonData/data/PhaseII/Pixel10D/pixfwdOuterDisk5.xml'
p1306
aS'Geometry/TrackerCommonData/data/PhaseII/Pixel10D/pixfwdOuterDisk6.xml'
p1307
aS'Geometry/TrackerCommonData/data/PhaseII/Pixel10D/pixfwdOuterDisk7.xml'
p1308
aS'Geometry/TrackerCommonData/data/PhaseII/Pixel10D/pixfwdOuterDisk8.xml'
p1309
aS'Geometry/TrackerCommonData/data/PhaseII/Pixel10D/pixfwdOuterDisk9.xml'
p1310
aS'Geometry/TrackerCommonData/data/PhaseII/Pixel10D/pixfwdOuterDisk10.xml'
p1311
aS'Geometry/TrackerCommonData/data/PhaseII/Pixel10D/pixfwdblade1.xml'
p1312
aS'Geometry/TrackerCommonData/data/PhaseII/Pixel10D/pixfwdblade2.xml'
p1313
aS'Geometry/TrackerCommonData/data/PhaseII/Pixel10D/pixfwdblade3.xml'
p1314
aS'Geometry/TrackerCommonData/data/PhaseII/Pixel10D/pixfwdblade4.xml'
p1315
aS'Geometry/TrackerCommonData/data/PhaseII/Pixel10D/pixfwdblade5.xml'
p1316
aS'Geometry/TrackerCommonData/data/PhaseII/Pixel10D/pixfwdblade6.xml'
p1317
aS'Geometry/TrackerCommonData/data/PhaseII/Pixel10D/pixfwdblade7.xml'
p1318
aS'Geometry/TrackerCommonData/data/PhaseII/Pixel10D/pixfwdblade8.xml'
p1319
aS'Geometry/TrackerCommonData/data/PhaseII/Pixel10D/pixfwdblade9.xml'
p1320
aS'Geometry/TrackerCommonData/data/PhaseII/Pixel10D/pixfwdblade10.xml'
p1321
aS'Geometry/TrackerCommonData/data/PhaseI/pixbarmaterial.xml'
p1322
aS'Geometry/TrackerCommonData/data/PhaseI/pixbarladder.xml'
p1323
aS'Geometry/TrackerCommonData/data/PhaseI/pixbarladderfull0.xml'
p1324
aS'Geometry/TrackerCommonData/data/PhaseI/pixbarladderfull1.xml'
p1325
aS'Geometry/TrackerCommonData/data/PhaseI/pixbarladderfull2.xml'
p1326
aS'Geometry/TrackerCommonData/data/PhaseI/pixbarladderfull3.xml'
p1327
aS'Geometry/TrackerCommonData/data/PhaseI/pixbarlayer.xml'
p1328
aS'Geometry/TrackerCommonData/data/PhaseI/pixbarlayer0.xml'
p1329
aS'Geometry/TrackerCommonData/data/PhaseI/pixbarlayer1.xml'
p1330
aS'Geometry/TrackerCommonData/data/PhaseI/pixbarlayer2.xml'
p1331
aS'Geometry/TrackerCommonData/data/PhaseI/pixbarlayer3.xml'
p1332
aS'Geometry/TrackerCommonData/data/PhaseII/BarrelEndcap5D/pixbar.xml'
p1333
aS'Geometry/TrackerCommonData/data/trackermaterial.xml'
p1334
aS'Geometry/TrackerCommonData/data/PhaseII/BarrelEndcap5D/tracker.xml'
p1335
aS'Geometry/TrackerCommonData/data/trackerpixbar.xml'
p1336
aS'Geometry/TrackerCommonData/data/PhaseI/trackerpixfwd.xml'
p1337
aS'Geometry/EcalCommonData/data/ectkcable.xml'
p1338
aS'Geometry/EcalCommonData/data/PhaseII/eregalgo.xml'
p1339
aS'Geometry/EcalCommonData/data/ebalgo.xml'
p1340
aS'Geometry/EcalCommonData/data/ebcon.xml'
p1341
aS'Geometry/EcalCommonData/data/ebrot.xml'
p1342
aS'Geometry/EcalCommonData/data/eecon.xml'
p1343
aS'Geometry/EcalCommonData/data/PhaseII/escon.xml'
p1344
aS'Geometry/EcalCommonData/data/PhaseII/esalgo.xml'
p1345
aS'Geometry/HcalCommonData/data/hcalrotations.xml'
p1346
aS'Geometry/HcalCommonData/data/PhaseII/NoHE/hcalalgo.xml'
p1347
aS'Geometry/HcalCommonData/data/hcalbarrelalgo.xml'
p1348
aS'Geometry/HcalCommonData/data/hcalouteralgo.xml'
p1349
aS'Geometry/HcalCommonData/data/hcalforwardalgo.xml'
p1350
aS'Geometry/HcalCommonData/data/PhaseII/NoHE/hcalSimNumbering.xml'
p1351
aS'Geometry/HcalCommonData/data/PhaseII/NoHE/hcalRecNumbering.xml'
p1352
aS'Geometry/HcalCommonData/data/average/hcalforwardmaterial.xml'
p1353
aS'Geometry/HGCalCommonData/data/v5/hgcal.xml'
p1354
aS'Geometry/HGCalCommonData/data/v5/hgcalEE.xml'
p1355
aS'Geometry/HGCalCommonData/data/v5/hgcalHEsil.xml'
p1356
aS'Geometry/HGCalCommonData/data/v5/hgcalHEsci.xml'
p1357
aS'Geometry/HGCalCommonData/data/v5/hgcalCons.xml'
p1358
aS'Geometry/MuonCommonData/data/v1/mbCommon.xml'
p1359
aS'Geometry/MuonCommonData/data/v1/mb1.xml'
p1360
aS'Geometry/MuonCommonData/data/v1/mb2.xml'
p1361
aS'Geometry/MuonCommonData/data/v1/mb3.xml'
p1362
aS'Geometry/MuonCommonData/data/v1/mb4.xml'
p1363
aS'Geometry/MuonCommonData/data/design/muonYoke.xml'
p1364
aS'Geometry/MuonCommonData/data/PhaseII/mf.xml'
p1365
aS'Geometry/MuonCommonData/data/PhaseII/rpcf.xml'
p1366
aS'Geometry/MuonCommonData/data/v2/gemf.xml'
p1367
aS'Geometry/MuonCommonData/data/v4/gem11.xml'
p1368
aS'Geometry/MuonCommonData/data/v6/gem21.xml'
p1369
aS'Geometry/MuonCommonData/data/v2/csc.xml'
p1370
aS'Geometry/MuonCommonData/data/PhaseII/mfshield.xml'
p1371
aS'Geometry/MuonCommonData/data/PhaseII/me0.xml'
p1372
aS'Geometry/ForwardCommonData/data/forward.xml'
p1373
aS'Geometry/ForwardCommonData/data/v2/forwardshield.xml'
p1374
aS'Geometry/ForwardCommonData/data/brmrotations.xml'
p1375
aS'Geometry/ForwardCommonData/data/brm.xml'
p1376
aS'Geometry/ForwardCommonData/data/totemMaterials.xml'
p1377
aS'Geometry/ForwardCommonData/data/totemRotations.xml'
p1378
aS'Geometry/ForwardCommonData/data/totemt1.xml'
p1379
aS'Geometry/ForwardCommonData/data/totemt2.xml'
p1380
aS'Geometry/ForwardCommonData/data/ionpump.xml'
p1381
aS'Geometry/ForwardCommonData/data/castor.xml'
p1382
aS'Geometry/ForwardCommonData/data/zdcmaterials.xml'
p1383
aS'Geometry/ForwardCommonData/data/lumimaterials.xml'
p1384
aS'Geometry/ForwardCommonData/data/zdcrotations.xml'
p1385
aS'Geometry/ForwardCommonData/data/lumirotations.xml'
p1386
aS'Geometry/ForwardCommonData/data/zdc.xml'
p1387
aS'Geometry/ForwardCommonData/data/zdclumi.xml'
p1388
aS'Geometry/ForwardCommonData/data/cmszdc.xml'
p1389
aS'Geometry/MuonCommonData/data/PhaseII/muonNumbering.xml'
p1390
aS'Geometry/TrackerCommonData/data/PhaseII/Pixel10D/trackerStructureTopology.xml'
p1391
aS'Geometry/TrackerSimData/data/PhaseII/Pixel10D/trackersens.xml'
p1392
aS'Geometry/TrackerRecoData/data/PhaseII/Pixel10D/trackerRecoMaterial.xml'
p1393
aS'Geometry/EcalSimData/data/PhaseII/ecalsens.xml'
p1394
aS'Geometry/HcalCommonData/data/PhaseII/NoHE/hcalsenspmf.xml'
p1395
aS'Geometry/HcalSimData/data/hf.xml'
p1396
aS'Geometry/HcalSimData/data/hfpmt.xml'
p1397
aS'Geometry/HcalSimData/data/hffibrebundle.xml'
p1398
aS'Geometry/HcalSimData/data/CaloUtil.xml'
p1399
aS'Geometry/HGCalSimData/data/hgcsens.xml'
p1400
aS'Geometry/HGCalSimData/data/hgccons.xml'
p1401
aS'Geometry/HGCalSimData/data/hgcProdCuts.xml'
p1402
aS'Geometry/MuonSimData/data/PhaseII/muonSens.xml'
p1403
aS'Geometry/DTGeometryBuilder/data/dtSpecsFilter.xml'
p1404
aS'Geometry/CSCGeometryBuilder/data/cscSpecsFilter.xml'
p1405
aS'Geometry/CSCGeometryBuilder/data/cscSpecs.xml'
p1406
aS'Geometry/RPCGeometryBuilder/data/PhaseII/RPCSpecs.xml'
p1407
aS'Geometry/GEMGeometryBuilder/data/v5/GEMSpecs.xml'
p1408
aS'Geometry/ForwardCommonData/data/brmsens.xml'
p1409
aS'Geometry/ForwardSimData/data/castorsens.xml'
p1410
aS'Geometry/ForwardSimData/data/zdcsens.xml'
p1411
aS'Geometry/HcalSimData/data/HcalProdCuts.xml'
p1412
aS'Geometry/EcalSimData/data/EcalProdCuts.xml'
p1413
aS'Geometry/TrackerSimData/data/PhaseII/Pixel10D/trackerProdCuts.xml'
p1414
aS'Geometry/TrackerSimData/data/trackerProdCutsBEAM.xml'
p1415
aS'Geometry/MuonSimData/data/PhaseII/muonProdCuts.xml'
p1416
aS'Geometry/ForwardSimData/data/CastorProdCuts.xml'
p1417
aS'Geometry/ForwardSimData/data/zdcProdCuts.xml'
p1418
aS'Geometry/ForwardSimData/data/ForwardShieldProdCuts.xml'
p1419
aS'Geometry/CMSCommonData/data/FieldParameters.xml'
p1420
atp1421
Rp1422
(dp1423
g14
I00
sg30
I01
sg15
I00
sg31
I1
sbsg17
S'/cvmfs/cms.cern.ch/slc6_amd64_gcc472/cms/cmssw-patch/CMSSW_6_2_0_SLHC26_patch3/python/Geometry/CMSCommonData/cmsExtendedGeometry2023HGCalMuonXML_cfi.py'
p1424
sg32
g1261
sg33
g1261
sbsS'HcalRecNumberingInitialization'
p1425
g0
(g7
g2
Ntp1426
Rp1427
(dp1428
g11
(lp1429
sg14
I00
sg15
I00
sg16
I40
sg17
g18
sg32
g1425
sg33
g1425
sbsS'_Process__services'
p1430
(dp1431
g1032
g1034
sS'TFileService'
p1432
g0
(g104
g2
Ntp1433
Rp1434
(dp1435
g11
(lp1436
S'fileName'
p1437
asg14
I00
sg15
I00
sg16
I10
sg17
g18
sg1437
g0
(g180
g2
Ntp1438
Rp1439
(dp1440
g14
I00
sg30
I01
sg62
S'OutTree.root'
p1441
sg15
I00
sbsg33
g1432
sbsS'DQMStore'
p1442
g0
(g104
g2
Ntp1443
Rp1444
(dp1445
g11
(lp1446
S'verboseQT'
p1447
aS'referenceFileName'
p1448
aS'verbose'
p1449
aS'collateHistograms'
p1450
asg14
I00
sg15
I00
sg1450
g0
(g517
g2
Ntp1451
Rp1452
(dp1453
g14
I00
sg30
I00
sg62
I00
sg15
I00
sbsg1448
g0
(g180
g2
Ntp1454
Rp1455
(dp1456
g14
I00
sg30
I00
sg62
g126
sg15
I00
sbsg17
g18
sg16
I10
sg1447
g0
(g554
g2
Ntp1457
Rp1458
(dp1459
g14
I00
sg30
I00
sg62
I0
sg15
I00
sbsg33
g1442
sg1449
g0
(g554
g2
Ntp1460
Rp1461
(dp1462
g14
I00
sg30
I00
sg62
I0
sg15
I00
sbsbsg166
g168
sg103
g106
ssg1442
g1444
sg36
g39
sS'eegeom'
p1463
g0
(g921
g2
Ntp1464
Rp1465
(dp1466
g11
(lp1467
S'iovIsRunNotTime'
p1468
aS'recordName'
p1469
aS'firstValid'
p1470
asg14
I00
sg15
I00
sg16
I6
sg1469
g0
(g180
g2
Ntp1471
Rp1472
(dp1473
g14
I00
sg30
I01
sg62
S'EcalMappingRcd'
p1474
sg15
I00
sbsg17
S'/cvmfs/cms.cern.ch/slc6_amd64_gcc472/cms/cmssw-patch/CMSSW_6_2_0_SLHC26_patch3/python/Geometry/EcalMapping/EcalMappingRecord_cfi.py'
p1475
sg1470
g0
(cFWCore.ParameterSet.Types
vuint32
p1476
g20
(lp1477
I1
atp1478
Rp1479
(dp1480
g14
I00
sg30
I01
sg15
I00
sbsg32
g1463
sg1468
g0
(g517
g2
Ntp1481
Rp1482
(dp1483
g14
I00
sg30
I01
sg62
I01
sg15
I00
sbsg33
S'EmptyESSource'
p1484
sbsS'ME0GeometryESModule'
p1485
g0
(g7
g2
Ntp1486
Rp1487
(dp1488
g11
(lp1489
S'useDDD'
p1490
asg14
I00
sg15
I00
sg16
I40
sg17
g18
sg1490
g0
(g517
g2
Ntp1491
Rp1492
(dp1493
g14
I00
sg30
I01
sg62
I01
sg15
I00
sbsg32
g1485
sg33
g1485
sbsS'_Process__vpsets'
p1494
(dp1495
sS'EcalTrigTowerConstituentsMapBuilder'
p1496
g0
(g7
g2
Ntp1497
Rp1498
(dp1499
g11
(lp1500
S'MapFile'
p1501
asg14
I00
sg15
I00
sg1501
g0
(g180
g2
Ntp1502
Rp1503
(dp1504
g14
I00
sg30
I00
sg62
S'Geometry/EcalMapping/data/EndCap_TTMap.txt'
p1505
sg15
I00
sbsg17
g18
sg16
I40
sg32
g1496
sg33
g1496
sbsS'HGCalHESciTopologyBuilder'
p1506
g0
(g7
g2
Ntp1507
Rp1508
(dp1509
g11
(lp1510
S'HalfType'
p1511
aS'Type'
p1512
ag869
asg14
I00
sg15
I00
sg16
I40
sg17
g18
sg1511
g0
(g517
g2
Ntp1513
Rp1514
(dp1515
g14
I00
sg30
I00
sg62
I01
sg15
I00
sbsg32
g1506
sg1512
g0
(g554
g2
Ntp1516
Rp1517
(dp1518
g14
I00
sg30
I00
sg62
I2
sg15
I00
sbsg33
S'HGCalTopologyBuilder'
p1519
sg869
g0
(g180
g2
Ntp1520
Rp1521
(dp1522
g14
I00
sg30
I00
sg62
g873
sg15
I00
sbsbsS'siStripBackPlaneCorrectionDepESProducer'
p1523
g0
(g7
g2
Ntp1524
Rp1525
(dp1526
g11
(lp1527
S'LatencyRecord'
p1528
aS'BackPlaneCorrectionDeconvMode'
p1529
aS'BackPlaneCorrectionPeakMode'
p1530
asg14
I00
sg15
I00
sg16
I40
sg17
g18
sg1528
g0
(g148
g2
Ntp1531
Rp1532
(dp1533
g14
I00
sg30
I01
sg15
I00
sS'label'
p1534
g0
(g180
g2
Ntp1535
Rp1536
(dp1537
g14
I00
sg30
I00
sg62
g126
sg15
I00
sbsg895
g0
(g180
g2
Ntp1538
Rp1539
(dp1540
g14
I00
sg30
I01
sg62
S'SiStripLatencyRcd'
p1541
sg15
I00
sbsg11
(lp1542
g895
ag1534
asbsg1530
g0
(g148
g2
Ntp1543
Rp1544
(dp1545
g14
I00
sg30
I01
sg15
I00
sg1534
g0
(g180
g2
Ntp1546
Rp1547
(dp1548
g14
I00
sg30
I00
sg62
S'peak'
p1549
sg15
I00
sbsg895
g0
(g180
g2
Ntp1550
Rp1551
(dp1552
g14
I00
sg30
I01
sg62
S'SiStripBackPlaneCorrectionRcd'
p1553
sg15
I00
sbsg11
(lp1554
g895
ag1534
asbsg32
g1523
sg1529
g0
(g148
g2
Ntp1555
Rp1556
(dp1557
g14
I00
sg30
I01
sg15
I00
sg1534
g0
(g180
g2
Ntp1558
Rp1559
(dp1560
g14
I00
sg30
I00
sg62
S'deconvolution'
p1561
sg15
I00
sbsg895
g0
(g180
g2
Ntp1562
Rp1563
(dp1564
g14
I00
sg30
I01
sg62
g1553
sg15
I00
sbsg11
(lp1565
g895
ag1534
asbsg33
S'SiStripBackPlaneCorrectionDepESProducer'
p1566
sbsS'_Process__esprefers'
p1567
(dp1568
S'es_prefer_hcalHardcode'
p1569
g0
(cFWCore.ParameterSet.Modules
ESPrefer
p1570
g2
Ntp1571
Rp1572
(dp1573
g11
(lp1574
sg14
I00
sg15
I00
sS'_targetLabel'
p1575
S'es_hardcode'
p1576
sg16
I73
sg17
g18
sg32
g1569
sg33
S'HcalHardcodeCalibrations'
p1577
sbsS'es_prefer_magfield'
p1578
g0
(g1570
g2
Ntp1579
Rp1580
(dp1581
g11
(lp1582
sg14
I00
sg15
I00
sg1575
S'magfield'
p1583
sg16
I73
sg17
g18
sg32
g1578
sg33
g1261
sbssS'_Process__isStrict'
p1584
I00
sS'HepPDTESSource'
p1585
g0
(g921
g2
Ntp1586
Rp1587
(dp1588
g11
(lp1589
S'pdtFileName'
p1590
asg14
I00
sg1590
g0
(g112
g2
Ntp1591
Rp1592
(dp1593
g14
I00
sg30
I01
sg62
S'SimGeneral/HepPDTESSource/data/pythiaparticle.tbl'
p1594
sg15
I00
sbsg15
I00
sg16
I4
sg17
S'/cvmfs/cms.cern.ch/slc6_amd64_gcc472/cms/cmssw-patch/CMSSW_6_2_0_SLHC26_patch3/python/SimGeneral/HepPDTESSource/pythiapdt_cfi.py'
p1595
sg32
g1585
sg33
g1585
sbsS'_Process__outputmodules'
p1596
(dp1597
sS'_Process__analyzers'
p1598
(dp1599
g1025
g1021
ssS'idealForDigiTrackerGeometry'
p1600
g0
(g7
g2
Ntp1601
Rp1602
(dp1603
g11
(lp1604
g542
ag543
ag544
ag545
ag546
asg14
I00
sg542
g0
(g180
g2
Ntp1605
Rp1606
(dp1607
g14
I00
sg30
I01
sg62
S'idealForDigi'
p1608
sg15
I01
sbsg544
g0
(g148
g2
Ntp1609
Rp1610
(dp1611
g14
I00
sg30
I01
sg553
g0
(g554
g2
Ntp1612
Rp1613
(dp1614
g14
I00
sg30
I01
sg62
I2
sg15
I00
sbsg558
g0
(g554
g2
Ntp1615
Rp1616
(dp1617
g14
I00
sg30
I01
sg62
I8
sg15
I00
sbsg562
g0
(g517
g2
Ntp1618
Rp1619
(dp1620
g14
I00
sg30
I01
sg62
I01
sg15
I00
sbsg566
g0
(g554
g2
Ntp1621
Rp1622
(dp1623
g14
I00
sg30
I01
sg62
I0
sg15
I00
sbsg570
g0
(g554
g2
Ntp1624
Rp1625
(dp1626
g14
I00
sg30
I01
sg62
I0
sg15
I00
sbsg574
g0
(g554
g2
Ntp1627
Rp1628
(dp1629
g14
I00
sg30
I01
sg62
I80
sg15
I00
sbsg11
(lp1630
g553
ag558
ag562
ag566
ag570
ag574
ag579
asg579
g0
(g554
g2
Ntp1631
Rp1632
(dp1633
g14
I00
sg30
I01
sg62
I52
sg15
I00
sbsg15
I00
sbsg15
I01
sg546
g0
(g180
g2
Ntp1634
Rp1635
(dp1636
g14
I00
sg30
I01
sg62
S'fakeForIdeal'
p1637
sg15
I01
sbsg17
S'/cvmfs/cms.cern.ch/slc6_amd64_gcc472/cms/cmssw-patch/CMSSW_6_2_0_SLHC26_patch3/python/Geometry/TrackerGeometryBuilder/idealForDigiTrackerSLHCGeometry_cff.py'
p1638
sg16
I8
sg32
g1600
sg543
g0
(g517
g2
Ntp1639
Rp1640
(dp1641
g14
I00
sg30
I01
sg62
I01
sg15
I00
sbsg545
g0
(g517
g2
Ntp1642
Rp1643
(dp1644
g14
I00
sg30
I01
sg62
I00
sg15
I01
sbsg33
g592
sbsS'_Process__looper'
p1645
NsS'HGCalEETopologyBuilder'
p1646
g0
(g7
g2
Ntp1647
Rp1648
(dp1649
g11
(lp1650
g1511
ag1512
ag869
asg14
I00
sg15
I00
sg16
I40
sg17
g18
sg1511
g0
(g517
g2
Ntp1651
Rp1652
(dp1653
g14
I00
sg30
I00
sg62
I00
sg15
I00
sbsg32
g1646
sg1512
g0
(g554
g2
Ntp1654
Rp1655
(dp1656
g14
I00
sg30
I00
sg62
I0
sg15
I00
sbsg33
g1519
sg869
g0
(g180
g2
Ntp1657
Rp1658
(dp1659
g14
I00
sg30
I00
sg62
S'HGCalEESensitive'
p1660
sg15
I00
sbsbsS'TrackerRecoGeometryESProducer'
p1661
g0
(g7
g2
Ntp1662
Rp1663
(dp1664
g11
(lp1665
sg14
I00
sg15
I00
sg16
I40
sg17
g18
sg32
g1661
sg33
g1661
sbsS'MuonNumberingInitialization'
p1666
g0
(g7
g2
Ntp1667
Rp1668
(dp1669
g11
(lp1670
sg14
I00
sg15
I00
sg16
I40
sg17
g18
sg32
g1666
sg33
g1666
sbsS'hgcalEENumberingInitialize'
p1671
g0
(g7
g2
Ntp1672
Rp1673
(dp1674
g11
(lp1675
g869
asg14
I00
sg869
g0
(g180
g2
Ntp1676
Rp1677
(dp1678
g14
I00
sg30
I00
sg62
g1660
sg15
I00
sbsg16
I40
sg17
g18
sg32
g1671
sg33
S'HGCalNumberingInitialization'
p1679
sg15
I00
sbsS'siStripQualityESProducer'
p1680
g0
(g7
g2
Ntp1681
Rp1682
(dp1683
g11
(lp1684
g542
aS'PrintDebugOutput'
p1685
aS'ThresholdForReducedGranularity'
p1686
aS'UseEmptyRunInfo'
p1687
aS'ReduceGranularity'
p1688
ag889
asg14
I00
sg542
g0
(g180
g2
Ntp1689
Rp1690
(dp1691
g14
I00
sg30
I01
sg62
g126
sg15
I00
sbsg15
I01
sg16
I40
sg17
g18
sg1686
g0
(g58
g2
Ntp1692
Rp1693
(dp1694
g14
I00
sg30
I01
sg62
F0.3
sg15
I00
sbsg32
g1680
sg1687
g0
(g517
g2
Ntp1695
Rp1696
(dp1697
g14
I00
sg30
I01
sg62
I00
sg15
I00
sbsg1688
g0
(g517
g2
Ntp1698
Rp1699
(dp1700
g14
I00
sg30
I01
sg62
I00
sg15
I00
sbsg889
g0
(g890
g20
(lp1701
g0
(g148
g2
Ntp1702
Rp1703
(dp1704
g14
I00
sg30
I01
sg15
I00
sg895
g0
(g180
g2
Ntp1705
Rp1706
(dp1707
g14
I00
sg30
I01
sg62
S'SiStripDetVOffRcd'
p1708
sg15
I00
sbsg900
g0
(g180
g2
Ntp1709
Rp1710
(dp1711
g14
I00
sg30
I01
sg62
g126
sg15
I00
sbsg11
(lp1712
g895
ag900
asbag0
(g148
g2
Ntp1713
Rp1714
(dp1715
g14
I00
sg30
I01
sg15
I00
sg895
g0
(g180
g2
Ntp1716
Rp1717
(dp1718
g14
I00
sg30
I01
sg62
S'SiStripDetCablingRcd'
p1719
sg15
I00
sbsg900
g0
(g180
g2
Ntp1720
Rp1721
(dp1722
g14
I00
sg30
I01
sg62
g126
sg15
I00
sbsg11
(lp1723
g895
ag900
asbag0
(g148
g2
Ntp1724
Rp1725
(dp1726
g14
I00
sg30
I01
sg15
I00
sg895
g0
(g180
g2
Ntp1727
Rp1728
(dp1729
g14
I00
sg30
I01
sg62
S'RunInfoRcd'
p1730
sg15
I00
sbsg900
g0
(g180
g2
Ntp1731
Rp1732
(dp1733
g14
I00
sg30
I01
sg62
g126
sg15
I00
sbsg11
(lp1734
g895
ag900
asbag0
(g148
g2
Ntp1735
Rp1736
(dp1737
g14
I00
sg30
I01
sg15
I00
sg895
g0
(g180
g2
Ntp1738
Rp1739
(dp1740
g14
I00
sg30
I01
sg62
S'SiStripBadChannelRcd'
p1741
sg15
I00
sbsg900
g0
(g180
g2
Ntp1742
Rp1743
(dp1744
g14
I00
sg30
I01
sg62
g126
sg15
I00
sbsg11
(lp1745
g895
ag900
asbag0
(g148
g2
Ntp1746
Rp1747
(dp1748
g14
I00
sg30
I01
sg15
I00
sg895
g0
(g180
g2
Ntp1749
Rp1750
(dp1751
g14
I00
sg30
I01
sg62
S'SiStripBadFiberRcd'
p1752
sg15
I00
sbsg900
g0
(g180
g2
Ntp1753
Rp1754
(dp1755
g14
I00
sg30
I01
sg62
g126
sg15
I00
sbsg11
(lp1756
g895
ag900
asbag0
(g148
g2
Ntp1757
Rp1758
(dp1759
g14
I00
sg30
I01
sg15
I00
sg895
g0
(g180
g2
Ntp1760
Rp1761
(dp1762
g14
I00
sg30
I01
sg62
S'SiStripBadModuleRcd'
p1763
sg15
I00
sbsg900
g0
(g180
g2
Ntp1764
Rp1765
(dp1766
g14
I00
sg30
I01
sg62
g126
sg15
I00
sbsg11
(lp1767
g895
ag900
asbag0
(g148
g2
Ntp1768
Rp1769
(dp1770
g14
I00
sg30
I01
sg15
I00
sg895
g0
(g180
g2
Ntp1771
Rp1772
(dp1773
g14
I00
sg30
I01
sg62
S'SiStripBadStripRcd'
p1774
sg15
I00
sbsg900
g0
(g180
g2
Ntp1775
Rp1776
(dp1777
g14
I00
sg30
I01
sg62
g126
sg15
I00
sbsg11
(lp1778
g895
ag900
asbatp1779
Rp1780
(dp1781
g14
I00
sg30
I01
sg15
I00
sg31
I1
sbsg33
S'SiStripQualityESProducer'
p1782
sg1685
g0
(g517
g2
Ntp1783
Rp1784
(dp1785
g14
I00
sg30
I01
sg62
I00
sg15
I00
sbsbsS'DTGeometryESModule'
p1786
g0
(g7
g2
Ntp1787
Rp1788
(dp1789
g11
(lp1790
g542
ag543
ag545
ag546
asg14
I00
sg542
g0
(g180
g2
Ntp1791
Rp1792
(dp1793
g14
I00
sg30
I01
sg62
g126
sg15
I00
sbsg15
I00
sg546
g0
(g180
g2
Ntp1794
Rp1795
(dp1796
g14
I00
sg30
I01
sg62
g126
sg15
I00
sbsg17
g18
sg16
I40
sg32
g1786
sg543
g0
(g517
g2
Ntp1797
Rp1798
(dp1799
g14
I00
sg30
I01
sg62
I01
sg15
I00
sbsg545
g0
(g517
g2
Ntp1800
Rp1801
(dp1802
g14
I00
sg30
I01
sg62
I01
sg15
I00
sbsg33
g1786
sbsS'VolumeBasedMagneticFieldESProducer'
p1803
g0
(g7
g2
Ntp1804
Rp1805
(dp1806
g11
(lp1807
g152
ag158
aS'useParametrizedTrackerField'
p1808
ag1534
aS'version'
p1809
aS'debugBuilder'
p1810
aS'paramLabel'
p1811
aS'geometryVersion'
p1812
aS'gridFiles'
p1813
aS'cacheLastVolume'
p1814
asg14
I00
sg152
g0
(g153
g20
(lp1815
I14100
aI14200
aI17600
aI17800
aI17900
aI18100
aI18300
aI18400
aI18600
aI23100
aI23300
aI23400
aI23600
aI23800
aI23900
aI24100
aI28600
aI28800
aI28900
aI29100
aI29300
aI29400
aI29600
aI28609
aI28809
aI28909
aI29109
aI29309
aI29409
aI29609
aI28610
aI28810
aI28910
aI29110
aI29310
aI29410
aI29610
aI28611
aI28811
aI28911
aI29111
aI29311
aI29411
aI29611
atp1816
Rp1817
(dp1818
g14
I00
sg30
I01
sg15
I00
sbsg15
I00
sg16
I40
sg17
g18
sg1808
g0
(g517
g2
Ntp1819
Rp1820
(dp1821
g14
I00
sg30
I01
sg62
I01
sg15
I00
sbsg158
g0
(g159
g20
(lp1822
I1
aI1
aF0.994
aF1.004
aF1.004
aF1.005
aF1.004
aF1.004
aF0.994
aF0.965
aF0.958
aF0.958
aF0.953
aF0.958
aF0.958
aF0.965
aF0.918
aF0.924
aF0.924
aF0.906
aF0.924
aF0.924
aF0.918
aF0.991
aF0.998
aF0.998
aF0.978
aF0.998
aF0.998
aF0.991
aF0.991
aF0.998
aF0.998
aF0.978
aF0.998
aF0.998
aF0.991
aF0.991
aF0.998
aF0.998
aF0.978
aF0.998
aF0.998
aF0.991
atp1823
Rp1824
(dp1825
g14
I00
sg30
I01
sg15
I00
sbsg1534
g0
(g180
g2
Ntp1826
Rp1827
(dp1828
g14
I00
sg30
I00
sg62
g126
sg15
I00
sbsg1809
g0
(g180
g2
Ntp1829
Rp1830
(dp1831
g14
I00
sg30
I01
sg62
S'grid_1103l_090322_3_8t'
p1832
sg15
I00
sbsg1810
g0
(g517
g2
Ntp1833
Rp1834
(dp1835
g14
I00
sg30
I00
sg62
I00
sg15
I00
sbsg32
g1803
sg1811
g0
(g180
g2
Ntp1836
Rp1837
(dp1838
g14
I00
sg30
I01
sg62
S'parametrizedField'
p1839
sg15
I00
sbsg1812
g0
(g554
g2
Ntp1840
Rp1841
(dp1842
g14
I00
sg30
I01
sg62
I90322
sg15
I00
sbsg1813
g0
(g890
g20
(lp1843
g0
(g148
g2
Ntp1844
Rp1845
(dp1846
g14
I00
sg30
I01
sg15
I00
sS'sectors'
p1847
g0
(g180
g2
Ntp1848
Rp1849
(dp1850
g14
I00
sg30
I01
sg62
S'0'
p1851
sg15
I00
sbsS'master'
p1852
g0
(g554
g2
Ntp1853
Rp1854
(dp1855
g14
I00
sg30
I01
sg62
I1
sg15
I00
sbsS'volumes'
p1856
g0
(g180
g2
Ntp1857
Rp1858
(dp1859
g14
I00
sg30
I01
sg62
S'1-312'
p1860
sg15
I00
sbsg11
(lp1861
S'path'
p1862
ag1852
ag1856
ag1847
asg1862
g0
(g180
g2
Ntp1863
Rp1864
(dp1865
g14
I00
sg30
I01
sg62
S'grid.[v].bin'
p1866
sg15
I00
sbsbag0
(g148
g2
Ntp1867
Rp1868
(dp1869
g14
I00
sg30
I01
sg15
I00
sg1847
g0
(g180
g2
Ntp1870
Rp1871
(dp1872
g14
I00
sg30
I01
sg62
S'3'
p1873
sg15
I00
sbsg1852
g0
(g554
g2
Ntp1874
Rp1875
(dp1876
g14
I00
sg30
I01
sg62
I3
sg15
I00
sbsg1856
g0
(g180
g2
Ntp1877
Rp1878
(dp1879
g14
I00
sg30
I01
sg62
S'176-186,231-241,286-296'
p1880
sg15
I00
sbsg11
(lp1881
g1862
ag1852
ag1856
ag1847
asg1862
g0
(g180
g2
Ntp1882
Rp1883
(dp1884
g14
I00
sg30
I01
sg62
S'S3/grid.[v].bin'
p1885
sg15
I00
sbsbag0
(g148
g2
Ntp1886
Rp1887
(dp1888
g14
I00
sg30
I01
sg15
I00
sg1847
g0
(g180
g2
Ntp1889
Rp1890
(dp1891
g14
I00
sg30
I01
sg62
S'4'
p1892
sg15
I00
sbsg1852
g0
(g554
g2
Ntp1893
Rp1894
(dp1895
g14
I00
sg30
I01
sg62
I4
sg15
I00
sbsg1856
g0
(g180
g2
Ntp1896
Rp1897
(dp1898
g14
I00
sg30
I01
sg62
g1880
sg15
I00
sbsg11
(lp1899
g1862
ag1852
ag1856
ag1847
asg1862
g0
(g180
g2
Ntp1900
Rp1901
(dp1902
g14
I00
sg30
I01
sg62
S'S4/grid.[v].bin'
p1903
sg15
I00
sbsbag0
(g148
g2
Ntp1904
Rp1905
(dp1906
g14
I00
sg30
I01
sg15
I00
sg1847
g0
(g180
g2
Ntp1907
Rp1908
(dp1909
g14
I00
sg30
I01
sg62
S'9'
p1910
sg15
I00
sbsg1852
g0
(g554
g2
Ntp1911
Rp1912
(dp1913
g14
I00
sg30
I01
sg62
I9
sg15
I00
sbsg1856
g0
(g180
g2
Ntp1914
Rp1915
(dp1916
g14
I00
sg30
I01
sg62
S'14,15,20,21,24-27,32,33,40,41,48,49,56,57,62,63,70,71,286-296'
p1917
sg15
I00
sbsg11
(lp1918
g1862
ag1852
ag1856
ag1847
asg1862
g0
(g180
g2
Ntp1919
Rp1920
(dp1921
g14
I00
sg30
I01
sg62
S'S9/grid.[v].bin'
p1922
sg15
I00
sbsbag0
(g148
g2
Ntp1923
Rp1924
(dp1925
g14
I00
sg30
I01
sg15
I00
sg1847
g0
(g180
g2
Ntp1926
Rp1927
(dp1928
g14
I00
sg30
I01
sg62
S'10'
p1929
sg15
I00
sbsg1852
g0
(g554
g2
Ntp1930
Rp1931
(dp1932
g14
I00
sg30
I01
sg62
I10
sg15
I00
sbsg1856
g0
(g180
g2
Ntp1933
Rp1934
(dp1935
g14
I00
sg30
I01
sg62
g1917
sg15
I00
sbsg11
(lp1936
g1862
ag1852
ag1856
ag1847
asg1862
g0
(g180
g2
Ntp1937
Rp1938
(dp1939
g14
I00
sg30
I01
sg62
S'S10/grid.[v].bin'
p1940
sg15
I00
sbsbag0
(g148
g2
Ntp1941
Rp1942
(dp1943
g14
I00
sg30
I01
sg15
I00
sg1847
g0
(g180
g2
Ntp1944
Rp1945
(dp1946
g14
I00
sg30
I01
sg62
S'11'
p1947
sg15
I00
sbsg1852
g0
(g554
g2
Ntp1948
Rp1949
(dp1950
g14
I00
sg30
I01
sg62
I11
sg15
I00
sbsg1856
g0
(g180
g2
Ntp1951
Rp1952
(dp1953
g14
I00
sg30
I01
sg62
g1917
sg15
I00
sbsg11
(lp1954
g1862
ag1852
ag1856
ag1847
asg1862
g0
(g180
g2
Ntp1955
Rp1956
(dp1957
g14
I00
sg30
I01
sg62
S'S11/grid.[v].bin'
p1958
sg15
I00
sbsbatp1959
Rp1960
(dp1961
g14
I00
sg30
I01
sg15
I00
sg31
I1
sbsg33
g1803
sg1814
g0
(g517
g2
Ntp1962
Rp1963
(dp1964
g14
I00
sg30
I00
sg62
I01
sg15
I00
sbsbsS'CaloTopologyBuilder'
p1965
g0
(g7
g2
Ntp1966
Rp1967
(dp1968
g11
(lp1969
sg14
I00
sg15
I00
sg16
I40
sg17
g18
sg32
g1965
sg33
g1965
sbsS'ParametrizedMagneticFieldProducer'
p1970
g0
(g7
g2
Ntp1971
Rp1972
(dp1973
g11
(lp1974
g1809
aS'parameters'
p1975
ag1534
asg14
I00
sg15
I00
sg1975
g0
(g148
g2
Ntp1976
Rp1977
(dp1978
g14
I00
sg30
I01
sS'BValue'
p1979
g0
(g180
g2
Ntp1980
Rp1981
(dp1982
g14
I00
sg30
I01
sg62
S'3_8T'
p1983
sg15
I00
sbsg15
I00
sg11
(lp1984
g1979
asbsg16
I40
sg17
g18
sg1534
g0
(g180
g2
Ntp1985
Rp1986
(dp1987
g14
I00
sg30
I00
sg62
g1839
sg15
I00
sbsg1809
g0
(g180
g2
Ntp1988
Rp1989
(dp1990
g14
I00
sg30
I01
sg62
S'OAE_1103l_071212'
p1991
sg15
I00
sbsg32
g1970
sg33
g1970
sbsS'hgcalHEScNumberingInitialize'
p1992
g0
(g7
g2
Ntp1993
Rp1994
(dp1995
g11
(lp1996
g869
asg14
I00
sg869
g0
(g180
g2
Ntp1997
Rp1998
(dp1999
g14
I00
sg30
I00
sg62
g873
sg15
I00
sbsg16
I40
sg17
g18
sg32
g1992
sg33
g1679
sg15
I00
sbsS'GEMGeometryESModule'
p2000
g0
(g7
g2
Ntp2001
Rp2002
(dp2003
g11
(lp2004
g1490
asg14
I00
sg15
I00
sg16
I40
sg17
g18
sg1490
g0
(g517
g2
Ntp2005
Rp2006
(dp2007
g14
I00
sg30
I01
sg62
I01
sg15
I00
sbsg32
g2000
sg33
g2000
sbsS'SiStripRecHitMatcherESProducer'
p2008
g0
(g7
g2
Ntp2009
Rp2010
(dp2011
g11
(lp2012
S'ComponentName'
p2013
aS'NSigmaInside'
p2014
asg14
I00
sg15
I00
sg17
g18
sg2013
g0
(g180
g2
Ntp2015
Rp2016
(dp2017
g14
I00
sg30
I01
sg62
S'StandardMatcher'
p2018
sg15
I00
sbsg16
I40
sg2014
g0
(g58
g2
Ntp2019
Rp2020
(dp2021
g14
I00
sg30
I01
sg62
F3.0
sg15
I00
sbsg32
g2008
sg33
g2008
sbsS'_Process__psets'
p2022
(dp2023
S'maxEvents'
p2024
g0
(g148
g2
Ntp2025
Rp2026
(dp2027
g14
I00
sg30
I00
sg15
I01
sg11
(lp2028
S'input'
p2029
asg32
g2024
sg2029
g0
(g554
g2
Ntp2030
Rp2031
(dp2032
g14
I00
sg30
I00
sg62
I1
sg15
I00
sbsbsg498
g500
sS'CondDBSetup'
p2033
g0
(g148
g2
Ntp2034
Rp2035
(dp2036
g14
I00
sg30
I01
sg15
I00
sg926
g0
(g148
g2
Ntp2037
Rp2038
(dp2039
g14
I00
sg30
I01
sg947
g0
(g554
g2
Ntp2040
Rp2041
(dp2042
g14
I00
sg30
I00
sg62
I10
sg15
I00
sbsg943
g0
(g180
g2
Ntp2043
Rp2044
(dp2045
g14
I00
sg30
I00
sg62
g126
sg15
I00
sbsg15
I00
sg951
g0
(g554
g2
Ntp2046
Rp2047
(dp2048
g14
I00
sg30
I00
sg62
I10
sg15
I00
sbsg955
g0
(g554
g2
Ntp2049
Rp2050
(dp2051
g14
I00
sg30
I00
sg62
I0
sg15
I00
sbsg959
g0
(g517
g2
Ntp2052
Rp2053
(dp2054
g14
I00
sg30
I00
sg62
I00
sg15
I00
sbsg963
g0
(g517
g2
Ntp2055
Rp2056
(dp2057
g14
I00
sg30
I00
sg62
I01
sg15
I00
sbsg967
g0
(g517
g2
Ntp2058
Rp2059
(dp2060
g14
I00
sg30
I00
sg62
I00
sg15
I00
sbsg11
(lp2061
g943
ag967
ag951
ag955
ag959
ag963
ag972
ag973
ag974
ag947
asg973
g0
(g554
g2
Ntp2062
Rp2063
(dp2064
g14
I00
sg30
I00
sg62
I60
sg15
I00
sbsg974
g0
(g554
g2
Ntp2065
Rp2066
(dp2067
g14
I00
sg30
I00
sg62
I0
sg15
I00
sbsg972
g0
(g554
g2
Ntp2068
Rp2069
(dp2070
g14
I00
sg30
I00
sg62
I60
sg15
I00
sbsbsg11
(lp2071
g926
asg32
g2033
sbsg147
g150
ssS'_Process__essources'
p2072
(dp2073
g1583
g0
(g921
g2
Ntp2074
Rp2075
(dp2076
g11
(lp2077
g1266
ag1267
asg14
I00
sg15
I00
sg16
I14
sg1267
g0
(g180
g2
Ntp2078
Rp2079
(dp2080
g14
I00
sg30
I01
sg62
S'cmsMagneticField:MAGF'
p2081
sg15
I00
sbsg1266
g0
(g19
g20
(lp2082
S'Geometry/CMSCommonData/data/normal/cmsextent.xml'
p2083
aS'Geometry/CMSCommonData/data/cms.xml'
p2084
aS'Geometry/CMSCommonData/data/cmsMagneticField.xml'
p2085
aS'MagneticField/GeomBuilder/data/MagneticFieldVolumes_1103l.xml'
p2086
aS'Geometry/CMSCommonData/data/materials.xml'
p2087
atp2088
Rp2089
(dp2090
g14
I00
sg30
I01
sg15
I00
sg31
I1
sbsg17
S'/cvmfs/cms.cern.ch/slc6_amd64_gcc472/cms/cmssw-patch/CMSSW_6_2_0_SLHC26_patch3/python/MagneticField/Engine/volumeBasedMagneticField_090322_2pi_scaled_cfi.py'
p2091
sg32
g1583
sg33
g1261
sbsg1463
g1465
sg1261
g1263
sg920
g923
sg1585
g1587
sg1576
g0
(g921
g2
Ntp2092
Rp2093
(dp2094
g11
(lp2095
S'HERecalibration'
p2096
aS'SipmAging'
p2097
ag928
aS'GainWidthsForTrigPrims'
p2098
aS'HBreCalibCutoff'
p2099
aS'HEreCalibCutoff'
p2100
aS'HFRecalibration'
p2101
aS'HBRecalibration'
p2102
aS'iLumi'
p2103
asg14
I00
sg15
I00
sg16
I21
sg2096
g0
(g93
g2
Ntp2104
Rp2105
(dp2106
g14
I00
sg30
I01
sg62
I0
sg15
I00
sbsg2097
g0
(g517
g2
Ntp2107
Rp2108
(dp2109
g14
I00
sg30
I01
sg62
I00
sg15
I00
sbsg928
g0
(g19
g20
(lp2110
S'GainWidths'
p2111
atp2112
Rp2113
(dp2114
g14
I00
sg30
I00
sg15
I00
sg31
I1
sbsg2098
g0
(g517
g2
Ntp2115
Rp2116
(dp2117
g14
I00
sg30
I01
sg62
I00
sg15
I00
sbsg32
g1576
sg2099
g0
(g58
g2
Ntp2118
Rp2119
(dp2120
g14
I00
sg30
I01
sg62
F20.0
sg15
I00
sbsg2100
g0
(g58
g2
Ntp2121
Rp2122
(dp2123
g14
I00
sg30
I01
sg62
F20.0
sg15
I00
sbsg2101
g0
(g517
g2
Ntp2124
Rp2125
(dp2126
g14
I00
sg30
I01
sg62
I00
sg15
I00
sbsg17
S'/cvmfs/cms.cern.ch/slc6_amd64_gcc472/cms/cmssw-patch/CMSSW_6_2_0_SLHC26_patch3/python/CalibCalorimetry/HcalPlugins/Hcal_Conditions_forGlobalTag_cff.py'
p2127
sg2102
g0
(g93
g2
Ntp2128
Rp2129
(dp2130
g14
I00
sg30
I01
sg62
I0
sg15
I00
sbsg2103
g0
(g58
g2
Ntp2131
Rp2132
(dp2133
g14
I00
sg30
I01
sg62
F-1.0
sg15
I00
sbsg33
g1577
sbssg102
g88
sg877
g879
sg2024
g2026
sS'CSCGeometryESModule'
p2134
g0
(g7
g2
Ntp2135
Rp2136
(dp2137
g11
(lp2138
g542
ag1490
aS'debugV'
p2139
aS'useGangedStripsInME1a'
p2140
ag546
aS'useOnlyWiresInME1a'
p2141
aS'useRealWireGeometry'
p2142
aS'useCentreTIOffsets'
p2143
ag545
asg14
I00
sg542
g0
(g180
g2
Ntp2144
Rp2145
(dp2146
g14
I00
sg30
I01
sg62
g126
sg15
I00
sbsg15
I00
sg2139
g0
(g517
g2
Ntp2147
Rp2148
(dp2149
g14
I00
sg30
I00
sg62
I00
sg15
I00
sbsg17
g18
sg2140
g0
(g517
g2
Ntp2150
Rp2151
(dp2152
g14
I00
sg30
I01
sg62
I01
sg15
I00
sbsg546
g0
(g180
g2
Ntp2153
Rp2154
(dp2155
g14
I00
sg30
I01
sg62
g126
sg15
I00
sbsg2141
g0
(g517
g2
Ntp2156
Rp2157
(dp2158
g14
I00
sg30
I01
sg62
I00
sg15
I00
sbsg1490
g0
(g517
g2
Ntp2159
Rp2160
(dp2161
g14
I00
sg30
I01
sg62
I01
sg15
I00
sbsg16
I40
sg2143
g0
(g517
g2
Ntp2162
Rp2163
(dp2164
g14
I00
sg30
I01
sg62
I00
sg15
I00
sbsg32
g2134
sg2142
g0
(g517
g2
Ntp2165
Rp2166
(dp2167
g14
I00
sg30
I01
sg62
I01
sg15
I00
sbsg545
g0
(g517
g2
Ntp2168
Rp2169
(dp2170
g14
I00
sg30
I01
sg62
I01
sg15
I00
sbsg33
g2134
sbsS'_Process__name'
p2171
S'Demo'
p2172
sS'HGCalHESilGeometryESProducer'
p2173
g0
(g7
g2
Ntp2174
Rp2175
(dp2176
g11
(lp2177
g869
asg14
I00
sg869
g0
(g180
g2
Ntp2178
Rp2179
(dp2180
g14
I00
sg30
I00
sg62
S'HGCalHESiliconSensitive'
p2181
sg15
I00
sbsg16
I40
sg17
g18
sg32
g2173
sg33
g874
sg15
I00
sbsg1576
g2093
sg1583
g2075
sS'_cloneToObjectDict'
p2182
(dp2183
I25486288
g1972
sI25457680
g534
sI25014480
g539
sI25486480
g150
sI25457872
g0
(g7
g2
Ntp2184
Rp2185
(dp2186
g11
(lp2187
sg14
I00
sg15
I00
sg16
I40
sg17
g18
sg32
S'CaloTowerHardcodeGeometryEP'
p2188
sg33
g2188
sbsI24998224
g0
(g7
g2
Ntp2189
Rp2190
(dp2191
g11
(lp2192
g869
asg14
I00
sg869
g0
(g180
g2
Ntp2193
Rp2194
(dp2195
g14
I00
sg30
I00
sg62
g2181
sg15
I00
sbsg16
I40
sg17
g18
sg32
S'hgcalHESiNumberingInitialize'
p2196
sg33
g1679
sg15
I00
sbsI25046928
g9
sI25458064
g0
(g7
g2
Ntp2197
Rp2198
(dp2199
g11
(lp2200
sg14
I00
sg15
I00
sg16
I40
sg17
g18
sg32
S'CaloTowerTopologyEP'
p2201
sg33
g2201
sbsI25019408
g600
sI25496464
g2093
sI25496528
g1572
sI25019984
g1029
sI24935824
g0
(g7
g2
Ntp2202
Rp2203
(dp2204
g11
(lp2205
g542
ag543
aS'layerNumberPXB'
p2206
aS'totalBlade'
p2207
asg14
I00
sg542
g0
(g180
g2
Ntp2208
Rp2209
(dp2210
g14
I00
sg30
I01
sg62
g126
sg15
I00
sbsg15
I00
sg2207
g0
(g93
g2
Ntp2211
Rp2212
(dp2213
g14
I00
sg30
I01
sg62
I56
sg15
I00
sbsg16
I40
sg17
g18
sg2206
g0
(g93
g2
Ntp2214
Rp2215
(dp2216
g14
I00
sg30
I01
sg62
I18
sg15
I00
sbsg32
S'trackerNumberingSLHCGeometry'
p2217
sg543
g0
(g517
g2
Ntp2218
Rp2219
(dp2220
g14
I00
sg30
I01
sg62
I01
sg15
I00
sbsg33
S'TrackerGeometricDetESModule'
p2221
sbsI25458384
g1427
sI25516112
g1525
sI25524112
g79
sI25020368
g2002
sI25525392
g2026
sI24999952
g2136
sI25045072
g1648
sI25495824
g0
(g7
g2
Ntp2222
Rp2223
(dp2224
g11
(lp2225
S'file'
p2226
aS'dump'
p2227
asg14
I00
sg15
I00
sg2227
g0
(g19
g20
(lp2228
g126
atp2229
Rp2230
(dp2231
g14
I00
sg30
I00
sg15
I00
sg31
I1
sbsg16
I40
sg17
g18
sg2226
g0
(g180
g2
Ntp2232
Rp2233
(dp2234
g14
I00
sg30
I00
sg62
g126
sg15
I00
sbsg32
S'hcal_db_producer'
p2235
sg33
S'HcalDbProducer'
p2236
sbsI25020560
g1487
sI25522704
g1682
sI24914192
g1587
sI25045328
g0
(g7
g2
Ntp2237
Rp2238
(dp2239
g11
(lp2240
g1511
ag1512
ag869
asg14
I00
sg15
I00
sg16
I40
sg17
g18
sg1511
g0
(g517
g2
Ntp2241
Rp2242
(dp2243
g14
I00
sg30
I00
sg62
I00
sg15
I00
sbsg32
S'HGCalHESilTopologyBuilder'
p2244
sg1512
g0
(g554
g2
Ntp2245
Rp2246
(dp2247
g14
I00
sg30
I00
sg62
I1
sg15
I00
sbsg33
g1519
sg869
g0
(g180
g2
Ntp2248
Rp2249
(dp2250
g14
I00
sg30
I00
sg62
g2181
sg15
I00
sbsbsI25494672
g923
sI25522320
g39
sI25045584
g1508
sI25459344
g0
(g7
g2
Ntp2251
Rp2252
(dp2253
g11
(lp2254
sg14
I00
sg15
I00
sg16
I40
sg17
g18
sg32
S'ZdcHardcodeGeometryEP'
p2255
sg33
g2255
sbsI25046416
g866
sI25516752
g0
(g7
g2
Ntp2256
Rp2257
(dp2258
g11
(lp2259
sg14
I00
sg15
I00
sg16
I40
sg17
g18
sg32
S'sistripconn'
p2260
sg33
S'SiStripConnectivity'
p2261
sbsI25021328
g0
(g7
g2
Ntp2262
Rp2263
(dp2264
g11
(lp2265
g542
ag1490
ag2139
ag2140
ag546
ag2141
ag2142
ag2143
ag545
asg14
I00
sg542
g0
(g180
g2
Ntp2266
Rp2267
(dp2268
g14
I00
sg30
I01
sg62
g1608
sg15
I01
sbsg15
I01
sg2139
g0
(g517
g2
Ntp2269
Rp2270
(dp2271
g14
I00
sg30
I00
sg62
I00
sg15
I00
sbsg17
S'/cvmfs/cms.cern.ch/slc6_amd64_gcc472/cms/cmssw-patch/CMSSW_6_2_0_SLHC26_patch3/python/Geometry/CSCGeometryBuilder/idealForDigiCscGeometry_cff.py'
p2272
sg2140
g0
(g517
g2
Ntp2273
Rp2274
(dp2275
g14
I00
sg30
I01
sg62
I01
sg15
I00
sbsg546
g0
(g180
g2
Ntp2276
Rp2277
(dp2278
g14
I00
sg30
I01
sg62
g1637
sg15
I01
sbsg2141
g0
(g517
g2
Ntp2279
Rp2280
(dp2281
g14
I00
sg30
I01
sg62
I00
sg15
I00
sbsg1490
g0
(g517
g2
Ntp2282
Rp2283
(dp2284
g14
I00
sg30
I01
sg62
I01
sg15
I00
sbsg16
I8
sg2143
g0
(g517
g2
Ntp2285
Rp2286
(dp2287
g14
I00
sg30
I01
sg62
I00
sg15
I00
sbsg32
S'idealForDigiCSCGeometry'
p2288
sg2142
g0
(g517
g2
Ntp2289
Rp2290
(dp2291
g14
I00
sg30
I01
sg62
I01
sg15
I00
sbsg545
g0
(g517
g2
Ntp2292
Rp2293
(dp2294
g14
I00
sg30
I01
sg62
I00
sg15
I01
sbsg33
g2134
sbsI25459664
g1498
sI25517456
g0
(g7
g2
Ntp2295
Rp2296
(dp2297
g11
(lp2298
sg14
I00
sg15
I00
sg16
I40
sg17
g18
sg32
S'CastorDbProducer'
p2299
sg33
g2299
sbsI25044176
g0
(g7
g2
Ntp2300
Rp2301
(dp2302
g11
(lp2303
g542
ag543
ag545
ag546
asg14
I00
sg542
g0
(g180
g2
Ntp2304
Rp2305
(dp2306
g14
I00
sg30
I01
sg62
g1608
sg15
I01
sbsg15
I01
sg546
g0
(g180
g2
Ntp2307
Rp2308
(dp2309
g14
I00
sg30
I01
sg62
g1637
sg15
I01
sbsg17
S'/cvmfs/cms.cern.ch/slc6_amd64_gcc472/cms/cmssw-patch/CMSSW_6_2_0_SLHC26_patch3/python/Geometry/DTGeometryBuilder/idealForDigiDtGeometry_cff.py'
p2310
sg16
I8
sg32
S'idealForDigiDTGeometry'
p2311
sg543
g0
(g517
g2
Ntp2312
Rp2313
(dp2314
g14
I00
sg30
I01
sg62
I01
sg15
I00
sbsg545
g0
(g517
g2
Ntp2315
Rp2316
(dp2317
g14
I00
sg30
I01
sg62
I00
sg15
I01
sbsg33
g1786
sbsI25516368
g0
(g7
g2
Ntp2318
Rp2319
(dp2320
g11
(lp2321
S'ComponentType'
p2322
ag2013
asg14
I00
sg15
I00
sg16
I40
sg2013
g0
(g180
g2
Ntp2323
Rp2324
(dp2325
g14
I00
sg30
I01
sg62
S'StripCPEfromTrackAngle'
p2326
sg15
I00
sbsg2322
g0
(g180
g2
Ntp2327
Rp2328
(dp2329
g14
I00
sg30
I01
sg62
g2326
sg15
I00
sbsg17
g18
sg32
S'StripCPEfromTrackAngleESProducer'
p2330
sg33
S'StripCPEESProducer'
p2331
sbsI25001040
g1788
sI25046160
g0
(g7
g2
Ntp2332
Rp2333
(dp2334
g11
(lp2335
g869
asg14
I00
sg869
g0
(g180
g2
Ntp2336
Rp2337
(dp2338
g14
I00
sg30
I00
sg62
g1660
sg15
I00
sbsg16
I40
sg17
g18
sg32
S'HGCalEEGeometryESProducer'
p2339
sg33
g874
sg15
I00
sbsI25019792
g1668
sI25046288
g2175
sI25000272
g0
(g7
g2
Ntp2340
Rp2341
(dp2342
g11
(lp2343
g1490
aS'compatibiltyWith11'
p2344
asg14
I00
sg15
I00
sg16
I40
sg17
g18
sg1490
g0
(g517
g2
Ntp2345
Rp2346
(dp2347
g14
I00
sg30
I00
sg62
I01
sg15
I00
sbsg2344
g0
(g517
g2
Ntp2348
Rp2349
(dp2350
g14
I00
sg30
I00
sg62
I01
sg15
I00
sbsg32
S'RPCGeometryESModule'
p2351
sg33
g2351
sbsI25459536
g144
sI25460112
g0
(g7
g2
Ntp2352
Rp2353
(dp2354
g11
(lp2355
sg14
I00
sg15
I00
sg16
I40
sg17
g18
sg32
S'EcalElectronicsMappingBuilder'
p2356
sg33
g2356
sbsI25525712
g1013
sI25021968
g0
(g7
g2
Ntp2357
Rp2358
(dp2359
g11
(lp2360
g542
asg14
I00
sg542
g0
(g180
g2
Ntp2361
Rp2362
(dp2363
g14
I00
sg30
I01
sg62
g1637
sg15
I01
sbsg15
I01
sg16
I5
sg17
S'/cvmfs/cms.cern.ch/slc6_amd64_gcc472/cms/cmssw-patch/CMSSW_6_2_0_SLHC26_patch3/python/Alignment/CommonAlignmentProducer/fakeForIdealAlignmentProducer_cfi.py'
p2364
sg32
S'fakeForIdealAlignment'
p2365
sg33
S'FakeAlignmentProducer'
p2366
sbsI25020688
g1602
sI25046672
g1967
sI24936144
g595
sI25458704
g0
(g7
g2
Ntp2367
Rp2368
(dp2369
g11
(lp2370
S'Exclude'
p2371
ag542
asg14
I00
sg542
g0
(g180
g2
Ntp2372
Rp2373
(dp2374
g14
I00
sg30
I01
sg62
g126
sg15
I00
sbsg15
I00
sg16
I7
sg17
S'/cvmfs/cms.cern.ch/slc6_amd64_gcc472/cms/cmssw-patch/CMSSW_6_2_0_SLHC26_patch3/python/Geometry/HcalEventSetup/HcalTopology_cfi.py'
p2375
sg32
S'hcalTopologyIdeal'
p2376
sg2371
g0
(g180
g2
Ntp2377
Rp2378
(dp2379
g14
I00
sg30
I00
sg62
g126
sg15
I00
sbsg33
S'HcalTopologyIdealEP'
p2380
sbsI25525520
g1021
sI25494544
g2035
sI24932816
g879
sI25460368
g1465
sI25494864
g0
(g7
g2
Ntp2381
Rp2382
(dp2383
g11
(lp2384
sg14
I00
sg15
I00
sg16
I40
sg17
g18
sg32
S'EcalLaserCorrectionService'
p2385
sg33
g2385
sbsI25517584
g886
sI25488912
g1805
sI24998096
g1673
sI25456912
g995
sI25516624
g2010
sI25014608
g0
(g7
g2
Ntp2386
Rp2387
(dp2388
g11
(lp2389
sg14
I00
sg15
I00
sg16
I40
sg17
g18
sg32
S'GlobalTrackingGeometryESProducer'
p2390
sg33
g2390
sbsI25014672
g1663
sI24935376
g1263
sI24998352
g1994
sI25514512
g0
(g7
g2
Ntp2391
Rp2392
(dp2393
g11
(lp2394
S'printDebug'
p2395
ag542
aS'APVGain'
p2396
aS'AutomaticNormalization'
p2397
asg14
I00
sg542
g0
(g180
g2
Ntp2398
Rp2399
(dp2400
g14
I00
sg30
I01
sg62
g126
sg15
I00
sbsg15
I00
sg2397
g0
(g517
g2
Ntp2401
Rp2402
(dp2403
g14
I00
sg30
I01
sg62
I00
sg15
I00
sbsg16
I40
sg2395
g0
(g517
g2
Ntp2404
Rp2405
(dp2406
g14
I00
sg30
I00
sg62
I00
sg15
I00
sbsg17
g18
sg2396
g0
(g890
g20
(lp2407
g0
(g148
g2
Ntp2408
Rp2409
(dp2410
g14
I00
sg30
I01
sg15
I00
sS'Label'
p2411
g0
(g180
g2
Ntp2412
Rp2413
(dp2414
g14
I00
sg30
I00
sg62
g126
sg15
I00
sbsS'Record'
p2415
g0
(g180
g2
Ntp2416
Rp2417
(dp2418
g14
I00
sg30
I01
sg62
S'SiStripApvGainRcd'
p2419
sg15
I00
sbsS'NormalizationFactor'
p2420
g0
(g58
g2
Ntp2421
Rp2422
(dp2423
g14
I00
sg30
I00
sg62
F1.0
sg15
I00
sbsg11
(lp2424
g2415
ag2420
ag2411
asbag0
(g148
g2
Ntp2425
Rp2426
(dp2427
g14
I00
sg30
I01
sg15
I00
sg2411
g0
(g180
g2
Ntp2428
Rp2429
(dp2430
g14
I00
sg30
I00
sg62
g126
sg15
I00
sbsg2415
g0
(g180
g2
Ntp2431
Rp2432
(dp2433
g14
I00
sg30
I01
sg62
S'SiStripApvGain2Rcd'
p2434
sg15
I00
sbsg2420
g0
(g58
g2
Ntp2435
Rp2436
(dp2437
g14
I00
sg30
I00
sg62
F1.0
sg15
I00
sbsg11
(lp2438
g2415
ag2420
ag2411
asbatp2439
Rp2440
(dp2441
g14
I00
sg30
I01
sg15
I00
sg31
I1
sbsg32
S'siStripGainESProducer'
p2442
sg33
S'SiStripGainESProducer'
p2443
sbsI25522384
g50
sI25515408
g0
(g7
g2
Ntp2444
Rp2445
(dp2446
g11
(lp2447
g1528
aS'LorentzAngleDeconvMode'
p2448
aS'LorentzAnglePeakMode'
p2449
asg14
I00
sg15
I00
sg16
I40
sg17
g18
sg1528
g0
(g148
g2
Ntp2450
Rp2451
(dp2452
g14
I00
sg30
I01
sg15
I00
sg1534
g0
(g180
g2
Ntp2453
Rp2454
(dp2455
g14
I00
sg30
I00
sg62
g126
sg15
I00
sbsg895
g0
(g180
g2
Ntp2456
Rp2457
(dp2458
g14
I00
sg30
I01
sg62
g1541
sg15
I00
sbsg11
(lp2459
g895
ag1534
asbsg32
S'siStripLorentzAngleDepESProducer'
p2460
sg2449
g0
(g148
g2
Ntp2461
Rp2462
(dp2463
g14
I00
sg30
I01
sg15
I00
sg1534
g0
(g180
g2
Ntp2464
Rp2465
(dp2466
g14
I00
sg30
I00
sg62
g1549
sg15
I00
sbsg895
g0
(g180
g2
Ntp2467
Rp2468
(dp2469
g14
I00
sg30
I01
sg62
S'SiStripLorentzAngleRcd'
p2470
sg15
I00
sbsg11
(lp2471
g895
ag1534
asbsg33
S'SiStripLorentzAngleDepESProducer'
p2472
sg2448
g0
(g148
g2
Ntp2473
Rp2474
(dp2475
g14
I00
sg30
I01
sg15
I00
sg1534
g0
(g180
g2
Ntp2476
Rp2477
(dp2478
g14
I00
sg30
I00
sg62
g1561
sg15
I00
sbsg895
g0
(g180
g2
Ntp2479
Rp2480
(dp2481
g14
I00
sg30
I01
sg62
g2470
sg15
I00
sbsg11
(lp2482
g895
ag1534
asbsbsI25486032
g1580
sI25485776
g2075
sI25457424
g500
ssg2442
g2392
sg2351
g2341
sg2311
g2301
sg2356
g2353
sg2460
g2445
sg2201
g2198
sg2255
g2252
sg76
g50
sg2033
g2035
sg1025
g1021
sg1569
g1572
sg2188
g2185
sg2330
g2319
sS'_Process__aliases'
p2483
(dp2484
sg2390
g2387
sg2376
g2368
sg1432
g1434
sg2299
g2296
sS'_Process__paths'
p2485
g0
(g1002
g1003
(dp2486
g1010
g1013
stp2487
Rp2488
(dp2489
g1008
(lp2490
g1010
asbsg2288
g2263
sg2235
g2223
sg2339
g2333
sg2385
g2382
sS'_Process__schedule'
p2491
NsS'_Process__subProcess'
p2492
Nsg2260
g2257
sg1578
g1580
sg2196
g2190
sg2244
g2238
sg2217
g2203
sS'_Process__filters'
p2493
(dp2494
sS'_Process__esproducers'
p2495
(dp2496
g6
g9
sg1671
g1673
sg142
g144
sg2288
g2263
sg2385
g2382
sg2188
g2185
sg1803
g1805
sg2330
g2319
sg1965
g1967
sg2390
g2387
sg1992
g1994
sg2460
g2445
sg2000
g2002
sg2376
g2368
sg593
g595
sg1485
g1487
sg2299
g2296
sg2134
g2136
sg1027
g1029
sg2173
g2175
sg1496
g1498
sg1506
g1508
sg1425
g1427
sg1523
g1525
sg2235
g2223
sg864
g866
sg2442
g2392
sg532
g534
sg537
g539
sg2351
g2341
sg2311
g2301
sg2339
g2333
sg598
g600
sg2196
g2190
sg2356
g2353
sg1680
g1682
sg1970
g1972
sg2260
g2257
sg2008
g2010
sg1600
g1602
sg2201
g2198
sg2365
g2358
sg2244
g2238
sg2217
g2203
sg993
g995
sg884
g886
sg1786
g1788
sg1646
g1648
sg1661
g1663
sg1666
g1668
sg2255
g2252
ssS'_Process__partialschedules'
p2497
(dp2498
sg2365
g2358
sb.